Archive member included because of file (symbol)

c:/program files (x86)/microchip/xc32/v1.31/bin/../lib/gcc/pic32mx/4.5.2/../../../../pic32mx/lib/size\libmchp_peripheral_32MX695F512L.a(soft_reset_lib.o)
                              build/default_-_avec_Bootloader/production/_ext/1472/HTTP_ADTEK.o (SoftReset)
c:/program files (x86)/microchip/xc32/v1.31/bin/../lib/gcc/pic32mx/4.5.2/../../../../pic32mx/lib/size\libmchp_peripheral_32MX695F512L.a(pcache.o)
                              build/default_-_avec_Bootloader/production/_ext/1472/0_SparkBox.o (CheKseg0CacheOn)
c:/program files (x86)/microchip/xc32/v1.31/bin/../lib/gcc/pic32mx/4.5.2/../../../../pic32mx/lib/size\libmchp_peripheral_32MX695F512L.a(int_disable_interrupts_lib.o)
                              build/default_-_avec_Bootloader/production/_ext/1472/rs232.o (INTDisableInterrupts)
c:/program files (x86)/microchip/xc32/v1.31/bin/../lib/gcc/pic32mx/4.5.2/../../../../pic32mx/lib/size\libmchp_peripheral_32MX695F512L.a(int_restore_interrupts_lib.o)
                              build/default_-_avec_Bootloader/production/_ext/1472/rs232.o (INTRestoreInterrupts)
c:/program files (x86)/microchip/xc32/v1.31/bin/../lib/gcc/pic32mx/4.5.2/../../../../pic32mx/lib/size\libmchp_peripheral_32MX695F512L.a(int_enable_mv_int_lib.o)
                              build/default_-_avec_Bootloader/production/_ext/1472/0_SparkBox.o (INTEnableSystemMultiVectoredInt)
c:/program files (x86)/microchip/xc32/v1.31/bin/../lib/gcc/pic32mx/4.5.2/../../../../pic32mx/lib/size\libmchp_peripheral_32MX695F512L.a(int_tbl_lib.o)
                              build/default_-_avec_Bootloader/production/_ext/1472/rs232.o (INTClearFlag)
c:/program files (x86)/microchip/xc32/v1.31/bin/../lib/gcc/pic32mx/4.5.2/../../../../pic32mx/lib/size\libmchp_peripheral_32MX695F512L.a(uart_lib.o)
                              build/default_-_avec_Bootloader/production/_ext/1472/rs232.o (UARTEnable)
c:/program files (x86)/microchip/xc32/v1.31/bin/../lib/gcc/pic32mx/4.5.2/../../../../pic32mx/lib/size\libmchp_peripheral_32MX695F512L.a(I2CAcknowledgeByte.o)
                              build/default_-_avec_Bootloader/production/_ext/1472/i2c.o (I2CAcknowledgeByte)
c:/program files (x86)/microchip/xc32/v1.31/bin/../lib/gcc/pic32mx/4.5.2/../../../../pic32mx/lib/size\libmchp_peripheral_32MX695F512L.a(I2CBusIsIdle.o)
                              build/default_-_avec_Bootloader/production/_ext/1472/i2c.o (I2CBusIsIdle)
c:/program files (x86)/microchip/xc32/v1.31/bin/../lib/gcc/pic32mx/4.5.2/../../../../pic32mx/lib/size\libmchp_peripheral_32MX695F512L.a(I2CByteWasAcknowledged.o)
                              build/default_-_avec_Bootloader/production/_ext/1472/Eeprom_i2c.o (I2CByteWasAcknowledged)
c:/program files (x86)/microchip/xc32/v1.31/bin/../lib/gcc/pic32mx/4.5.2/../../../../pic32mx/lib/size\libmchp_peripheral_32MX695F512L.a(I2CEnable.o)
                              build/default_-_avec_Bootloader/production/_ext/1472/Eeprom_i2c.o (I2CEnable)
c:/program files (x86)/microchip/xc32/v1.31/bin/../lib/gcc/pic32mx/4.5.2/../../../../pic32mx/lib/size\libmchp_peripheral_32MX695F512L.a(I2CGetByte.o)
                              build/default_-_avec_Bootloader/production/_ext/1472/Eeprom_i2c.o (I2CGetByte)
c:/program files (x86)/microchip/xc32/v1.31/bin/../lib/gcc/pic32mx/4.5.2/../../../../pic32mx/lib/size\libmchp_peripheral_32MX695F512L.a(I2CGetStatus.o)
                              build/default_-_avec_Bootloader/production/_ext/1472/i2c.o (I2CGetStatus)
c:/program files (x86)/microchip/xc32/v1.31/bin/../lib/gcc/pic32mx/4.5.2/../../../../pic32mx/lib/size\libmchp_peripheral_32MX695F512L.a(I2CReceivedDataIsAvailable.o)
                              build/default_-_avec_Bootloader/production/_ext/1472/Eeprom_i2c.o (I2CReceivedDataIsAvailable)
c:/program files (x86)/microchip/xc32/v1.31/bin/../lib/gcc/pic32mx/4.5.2/../../../../pic32mx/lib/size\libmchp_peripheral_32MX695F512L.a(I2CReceiverEnable.o)
                              build/default_-_avec_Bootloader/production/_ext/1472/Eeprom_i2c.o (I2CReceiverEnable)
c:/program files (x86)/microchip/xc32/v1.31/bin/../lib/gcc/pic32mx/4.5.2/../../../../pic32mx/lib/size\libmchp_peripheral_32MX695F512L.a(I2CRepeatStart.o)
                              build/default_-_avec_Bootloader/production/_ext/1472/i2c.o (I2CRepeatStart)
c:/program files (x86)/microchip/xc32/v1.31/bin/../lib/gcc/pic32mx/4.5.2/../../../../pic32mx/lib/size\libmchp_peripheral_32MX695F512L.a(I2CSendByte.o)
                              build/default_-_avec_Bootloader/production/_ext/1472/i2c.o (I2CSendByte)
c:/program files (x86)/microchip/xc32/v1.31/bin/../lib/gcc/pic32mx/4.5.2/../../../../pic32mx/lib/size\libmchp_peripheral_32MX695F512L.a(I2CSetFrequency.o)
                              build/default_-_avec_Bootloader/production/_ext/1472/Eeprom_i2c.o (I2CSetFrequency)
c:/program files (x86)/microchip/xc32/v1.31/bin/../lib/gcc/pic32mx/4.5.2/../../../../pic32mx/lib/size\libmchp_peripheral_32MX695F512L.a(I2CStart.o)
                              build/default_-_avec_Bootloader/production/_ext/1472/i2c.o (I2CStart)
c:/program files (x86)/microchip/xc32/v1.31/bin/../lib/gcc/pic32mx/4.5.2/../../../../pic32mx/lib/size\libmchp_peripheral_32MX695F512L.a(I2CStop.o)
                              build/default_-_avec_Bootloader/production/_ext/1472/i2c.o (I2CStop)
c:/program files (x86)/microchip/xc32/v1.31/bin/../lib/gcc/pic32mx/4.5.2/../../../../pic32mx/lib/size\libmchp_peripheral_32MX695F512L.a(I2CTransmissionHasCompleted.o)
                              build/default_-_avec_Bootloader/production/_ext/1472/i2c.o (I2CTransmissionHasCompleted)
c:/program files (x86)/microchip/xc32/v1.31/bin/../lib/gcc/pic32mx/4.5.2/../../../../pic32mx/lib/size\libmchp_peripheral_32MX695F512L.a(I2CTransmitterIsReady.o)
                              build/default_-_avec_Bootloader/production/_ext/1472/i2c.o (I2CTransmitterIsReady)
c:/program files (x86)/microchip/xc32/v1.31/bin/../lib/gcc/pic32mx/4.5.2/../../../../pic32mx/lib/size\libmchp_peripheral_32MX695F512L.a(int_enable_interrupts_lib.o)
                              c:/program files (x86)/microchip/xc32/v1.31/bin/../lib/gcc/pic32mx/4.5.2/../../../../pic32mx/lib/size\libmchp_peripheral_32MX695F512L.a(int_enable_mv_int_lib.o) (INTEnableInterrupts)
c:/program files (x86)/microchip/xc32/v1.31/bin/../lib/gcc/pic32mx/4.5.2/../../../../pic32mx/lib/size\libmchp_peripheral_32MX695F512L.a(I2CPrivate.o)
                              c:/program files (x86)/microchip/xc32/v1.31/bin/../lib/gcc/pic32mx/4.5.2/../../../../pic32mx/lib/size\libmchp_peripheral_32MX695F512L.a(I2CAcknowledgeByte.o) (i2cBase)
c:/program files (x86)/microchip/xc32/v1.31/bin/../lib/gcc/pic32mx/4.5.2/size\libgcc.a(_divdi3.o)
                              build/default_-_avec_Bootloader/production/_ext/1472/divers.o (__divdi3)
c:/program files (x86)/microchip/xc32/v1.31/bin/../lib/gcc/pic32mx/4.5.2/size\libgcc.a(_udivdi3.o)
                              build/default_-_avec_Bootloader/production/_ext/1295770447/Tick.o (__udivdi3)
c:/program files (x86)/microchip/xc32/v1.31/bin/../lib/gcc/pic32mx/4.5.2/size\libgcc.a(floatunsisf.o)
                              build/default_-_avec_Bootloader/production/_ext/1472/Analogique.o (__floatunsisf)
c:/program files (x86)/microchip/xc32/v1.31/bin/../lib/gcc/pic32mx/4.5.2/../../../../pic32mx/lib/size\libpic32.a(memcmp.o)
                              build/default_-_avec_Bootloader/production/_ext/1472/HTTP_ADTEK.o (memcmp)
c:/program files (x86)/microchip/xc32/v1.31/bin/../lib/gcc/pic32mx/4.5.2/../../../../pic32mx/lib/size\libpic32.a(memcpy.o)
                              build/default_-_avec_Bootloader/production/_ext/1472/HTTP_Reseau.o (memcpy)
c:/program files (x86)/microchip/xc32/v1.31/bin/../lib/gcc/pic32mx/4.5.2/../../../../pic32mx/lib/size\libpic32.a(memset.o)
                              build/default_-_avec_Bootloader/production/_ext/1472/HTTP_Password.o (memset)
c:/program files (x86)/microchip/xc32/v1.31/bin/../lib/gcc/pic32mx/4.5.2/../../../../pic32mx/lib/size\libpic32.a(strcmp.o)
                              build/default_-_avec_Bootloader/production/_ext/1472/HTTP_Reseau.o (strcmp)
c:/program files (x86)/microchip/xc32/v1.31/bin/../lib/gcc/pic32mx/4.5.2/../../../../pic32mx/lib/size\libpic32.a(strcpy.o)
                              build/default_-_avec_Bootloader/production/_ext/1472/HTTP_Teleinfo.o (strcpy)
c:/program files (x86)/microchip/xc32/v1.31/bin/../lib/gcc/pic32mx/4.5.2/../../../../pic32mx/lib/size\libpic32.a(strlen.o)
                              build/default_-_avec_Bootloader/production/_ext/1295770447/Helpers.o (strlen)
c:/program files (x86)/microchip/xc32/v1.31/bin/../lib/gcc/pic32mx/4.5.2/../../../../pic32mx/lib/size\libpic32.a(default-bootstrap-exception-handler.o)
                              c:/program files (x86)/microchip/xc32/v1.31/bin/../lib/gcc/pic32mx/4.5.2/../../../../pic32mx/lib/./proc/32MX695F512L/crt0_mips32r2.o (_bootstrap_exception_handler)
c:/program files (x86)/microchip/xc32/v1.31/bin/../lib/gcc/pic32mx/4.5.2/../../../../pic32mx/lib/size\libpic32.a(default-on-reset.o)
                              c:/program files (x86)/microchip/xc32/v1.31/bin/../lib/gcc/pic32mx/4.5.2/../../../../pic32mx/lib/./proc/32MX695F512L/crt0_mips32r2.o (_on_reset)
c:/program files (x86)/microchip/xc32/v1.31/bin/../lib/gcc/pic32mx/4.5.2/../../../../pic32mx/lib/size\libpic32.a(default-on-bootstrap.o)
                              c:/program files (x86)/microchip/xc32/v1.31/bin/../lib/gcc/pic32mx/4.5.2/../../../../pic32mx/lib/./proc/32MX695F512L/crt0_mips32r2.o (_on_bootstrap)
c:/program files (x86)/microchip/xc32/v1.31/bin/../lib/gcc/pic32mx/4.5.2/../../../../pic32mx/lib/size\libpic32.a(default-nmi-handler.o)
                              c:/program files (x86)/microchip/xc32/v1.31/bin/../lib/gcc/pic32mx/4.5.2/../../../../pic32mx/lib/./proc/32MX695F512L/crt0_mips32r2.o (_nmi_handler)
c:/program files (x86)/microchip/xc32/v1.31/bin/../lib/gcc/pic32mx/4.5.2/../../../../pic32mx/lib/size\libpic32.a(pic32_software_reset.o)
                              c:/program files (x86)/microchip/xc32/v1.31/bin/../lib/gcc/pic32mx/4.5.2/../../../../pic32mx/lib/size\libpic32.a(default-bootstrap-exception-handler.o) (__pic32_software_reset)
c:/program files (x86)/microchip/xc32/v1.31/bin/../lib/gcc/pic32mx/4.5.2/../../../../pic32mx/lib/size\libpic32.a(general-exception.o)
                              c:/program files (x86)/microchip/xc32/v1.31/bin/../lib/gcc/pic32mx/4.5.2/../../../../pic32mx/lib/./proc/32MX695F512L/crt0_mips32r2.o (_general_exception_context)
c:/program files (x86)/microchip/xc32/v1.31/bin/../lib/gcc/pic32mx/4.5.2/../../../../pic32mx/lib/size\libm.a(w_sqrtf.o)
                              build/default_-_avec_Bootloader/production/_ext/1472/Analogique.o (sqrtf)
c:/program files (x86)/microchip/xc32/v1.31/bin/../lib/gcc/pic32mx/4.5.2/../../../../pic32mx/lib/size\libm.a(fp32.o)
                              c:/program files (x86)/microchip/xc32/v1.31/bin/../lib/gcc/pic32mx/4.5.2/size\libgcc.a(floatunsisf.o) (fpadd)
c:/program files (x86)/microchip/xc32/v1.31/bin/../lib/gcc/pic32mx/4.5.2/../../../../pic32mx/lib/size\libm.a(s_lib_ver.o)
                              c:/program files (x86)/microchip/xc32/v1.31/bin/../lib/gcc/pic32mx/4.5.2/../../../../pic32mx/lib/size\libm.a(w_sqrtf.o) (math_errhandling)
c:/program files (x86)/microchip/xc32/v1.31/bin/../lib/gcc/pic32mx/4.5.2/../../../../pic32mx/lib/size\libm.a(fpsqrt32.o)
                              c:/program files (x86)/microchip/xc32/v1.31/bin/../lib/gcc/pic32mx/4.5.2/../../../../pic32mx/lib/size\libm.a(w_sqrtf.o) (__mchp_sqrtf)
c:/program files (x86)/microchip/xc32/v1.31/bin/../lib/gcc/pic32mx/4.5.2/../../../../pic32mx/lib/size\libpic32.a(errno.o)
                              c:/program files (x86)/microchip/xc32/v1.31/bin/../lib/gcc/pic32mx/4.5.2/../../../../pic32mx/lib/size\libm.a(w_sqrtf.o) (errno)
c:/program files (x86)/microchip/xc32/v1.31/bin/../lib/gcc/pic32mx/4.5.2/../../../../pic32mx/lib/size\libc.a(atoi.o)
                              build/default_-_avec_Bootloader/production/_ext/1472/HTTP_Mynetmemo.o (atoi)
c:/program files (x86)/microchip/xc32/v1.31/bin/../lib/gcc/pic32mx/4.5.2/../../../../pic32mx/lib/size\libc.a(atol.o)
                              build/default_-_avec_Bootloader/production/_ext/1295770447/HTTP2.o (atol)
c:/program files (x86)/microchip/xc32/v1.31/bin/../lib/gcc/pic32mx/4.5.2/../../../../pic32mx/lib/size\libc.a(ctype.o)
                              c:/program files (x86)/microchip/xc32/v1.31/bin/../lib/gcc/pic32mx/4.5.2/../../../../pic32mx/lib/size\libc.a(atoi.o) (_ctype)
c:/program files (x86)/microchip/xc32/v1.31/bin/../lib/gcc/pic32mx/4.5.2/../../../../pic32mx/lib/size\libc.a(ctypef.o)
                              build/default_-_avec_Bootloader/production/_ext/1472/divers.o (toupper)
c:/program files (x86)/microchip/xc32/v1.31/bin/../lib/gcc/pic32mx/4.5.2/../../../../pic32mx/lib/size\libc.a(ltoa.o)
                              build/default_-_avec_Bootloader/production/_ext/1472/HTTP_Teleinfo.o (ultoa)
c:/program files (x86)/microchip/xc32/v1.31/bin/../lib/gcc/pic32mx/4.5.2/../../../../pic32mx/lib/size\libc.a(mktime.o)
                              build/default_-_avec_Bootloader/production/_ext/1472/HTTP_log.o (mktime)
c:/program files (x86)/microchip/xc32/v1.31/bin/../lib/gcc/pic32mx/4.5.2/../../../../pic32mx/lib/size\libc.a(strcat.o)
                              build/default_-_avec_Bootloader/production/_ext/1472/HTTP_Teleinfo.o (strcat)
c:/program files (x86)/microchip/xc32/v1.31/bin/../lib/gcc/pic32mx/4.5.2/../../../../pic32mx/lib/size\libc.a(strchr.o)
                              build/default_-_avec_Bootloader/production/_ext/1295770447/SMTP.o (strchr)
c:/program files (x86)/microchip/xc32/v1.31/bin/../lib/gcc/pic32mx/4.5.2/../../../../pic32mx/lib/size\libc.a(strncmp.o)
                              build/default_-_avec_Bootloader/production/_ext/1472/HTTP_Mynetmemo.o (strncmp)
c:/program files (x86)/microchip/xc32/v1.31/bin/../lib/gcc/pic32mx/4.5.2/../../../../pic32mx/lib/size\libc.a(strncpy.o)
                              build/default_-_avec_Bootloader/production/_ext/1472/HTTP_Mynetmemo.o (strncpy)
c:/program files (x86)/microchip/xc32/v1.31/bin/../lib/gcc/pic32mx/4.5.2/../../../../pic32mx/lib/size\libc.a(strstr.o)
                              build/default_-_avec_Bootloader/production/_ext/1295770447/SMTP.o (strstr)
c:/program files (x86)/microchip/xc32/v1.31/bin/../lib/gcc/pic32mx/4.5.2/../../../../pic32mx/lib/size\libc.a(sprintf_cdnopsuxX.eo)
                              build/default_-_avec_Bootloader/production/_ext/1472/Mynetmemo.o (_sprintf_cdnopsuxX)
c:/program files (x86)/microchip/xc32/v1.31/bin/../lib/gcc/pic32mx/4.5.2/../../../../pic32mx/lib/size\libc.a(doprnt_cdnopsuxX.eo)
                              c:/program files (x86)/microchip/xc32/v1.31/bin/../lib/gcc/pic32mx/4.5.2/../../../../pic32mx/lib/size\libc.a(sprintf_cdnopsuxX.eo) (_vfprintf_cdnopsuxX)
c:/program files (x86)/microchip/xc32/v1.31/bin/../lib/gcc/pic32mx/4.5.2/../../../../pic32mx/lib/size\libc.a(_fputc_simple.o)
                              c:/program files (x86)/microchip/xc32/v1.31/bin/../lib/gcc/pic32mx/4.5.2/../../../../pic32mx/lib/size\libc.a(doprnt_cdnopsuxX.eo) (fputc)
c:/program files (x86)/microchip/xc32/v1.31/bin/../lib/gcc/pic32mx/4.5.2/../../../../pic32mx/lib/size\libc.a(_iob.o)
                              c:/program files (x86)/microchip/xc32/v1.31/bin/../lib/gcc/pic32mx/4.5.2/../../../../pic32mx/lib/size\libc.a(_fputc_simple.o) (_outdone)
c:/program files (x86)/microchip/xc32/v1.31/bin/../lib/gcc/pic32mx/4.5.2/../../../../pic32mx/lib/size\libc.a(_flsbuf_simple.o)
                              c:/program files (x86)/microchip/xc32/v1.31/bin/../lib/gcc/pic32mx/4.5.2/../../../../pic32mx/lib/size\libc.a(_fputc_simple.o) (_flsbuf)
c:/program files (x86)/microchip/xc32/v1.31/bin/../lib/gcc/pic32mx/4.5.2/../../../../pic32mx/lib/size\libpic32.a(write.o)
                              c:/program files (x86)/microchip/xc32/v1.31/bin/../lib/gcc/pic32mx/4.5.2/../../../../pic32mx/lib/size\libc.a(_fputc_simple.o) (write)
c:/program files (x86)/microchip/xc32/v1.31/bin/../lib/gcc/pic32mx/4.5.2/../../../../pic32mx/lib/size\libpic32.a(_mon_putc.o)
                              c:/program files (x86)/microchip/xc32/v1.31/bin/../lib/gcc/pic32mx/4.5.2/../../../../pic32mx/lib/size\libpic32.a(write.o) (_mon_putc)
c:/program files (x86)/microchip/xc32/v1.31/bin/../lib/gcc/pic32mx/4.5.2/../../../../pic32mx/lib/size\libpic32.a(xc32_uart.o)
                              c:/program files (x86)/microchip/xc32/v1.31/bin/../lib/gcc/pic32mx/4.5.2/../../../../pic32mx/lib/size\libpic32.a(_mon_putc.o) (__XC_UART)
c:/program files (x86)/microchip/xc32/v1.31/bin/../lib/gcc/pic32mx/4.5.2/size\libgcc.a(_lshrdi3.o)
                              c:/program files (x86)/microchip/xc32/v1.31/bin/../lib/gcc/pic32mx/4.5.2/../../../../pic32mx/lib/size\libc.a(doprnt_cdnopsuxX.eo) (__lshrdi3)
c:/program files (x86)/microchip/xc32/v1.31/bin/../lib/gcc/pic32mx/4.5.2/size\libgcc.a(_umoddi3.o)
                              c:/program files (x86)/microchip/xc32/v1.31/bin/../lib/gcc/pic32mx/4.5.2/../../../../pic32mx/lib/size\libc.a(doprnt_cdnopsuxX.eo) (__umoddi3)

Allocating common symbols
Common symbol       size              file

sslSessionStubs     0x10              build/default_-_avec_Bootloader/production/_ext/1295770447/SSL.o
int_status_rs       0x4               build/default_-_avec_Bootloader/production/_ext/1472/rs232.o
utc                 0x10              build/default_-_avec_Bootloader/production/_ext/1472/0_SparkBox.o
UDPTxCount          0x2               build/default_-_avec_Bootloader/production/_ext/1295770447/UDP.o
Date_Log            0x9               build/default_-_avec_Bootloader/production/_ext/1472/log.o
curHTTP             0x8c              build/default_-_avec_Bootloader/production/_ext/1295770447/HTTP2.o
cpt1m               0x4               build/default_-_avec_Bootloader/production/_ext/1472/0_SparkBox.o
Temp_c              0xfa              build/default_-_avec_Bootloader/production/_ext/1472/HTTP_ADTEK.o
utc_min             0x2               build/default_-_avec_Bootloader/production/_ext/1472/0_SparkBox.o
tdonnees_matin      0x4               build/default_-_avec_Bootloader/production/_ext/1472/HTTP_Donnees.o
tindex_soir         0x4               build/default_-_avec_Bootloader/production/_ext/1472/HTTP_Donnees.o
index_lu            0x8               build/default_-_avec_Bootloader/production/_ext/1472/Teleinfo.o
tindex_matin        0x4               build/default_-_avec_Bootloader/production/_ext/1472/HTTP_Donnees.o
Index_Nb_Lignes     0x1               build/default_-_avec_Bootloader/production/_ext/1472/log.o
tindex_calc         0x4               build/default_-_avec_Bootloader/production/_ext/1472/HTTP_Donnees.o
Compteur            0x218             build/default_-_avec_Bootloader/production/_ext/1472/Teleinfo.o
fi                  0x1               build/default_-_avec_Bootloader/production/_ext/1472/Temperature.o
Filtre_Capteur      0x154             build/default_-_avec_Bootloader/production/_ext/1472/Temperature.o
out                 0x28              build/default_-_avec_Bootloader/production/_ext/1472/Teleinfo.o
Relais_Man          0x20              build/default_-_avec_Bootloader/production/_ext/1472/0_SparkBox.o
elementInsere       0x2               build/default_-_avec_Bootloader/production/_ext/1472/Temperature.o
CurrentMessage      0x44              build/default_-_avec_Bootloader/production/_ext/1472/Teleinfo.o
ptr_get             0x4               build/default_-_avec_Bootloader/production/_ext/1472/HTTP_ADTEK.o
Http_Temp           0x20              build/default_-_avec_Bootloader/production/_ext/1472/HTTP_ADTEK.o
User                0x2a              build/default_-_avec_Bootloader/production/_ext/1472/0_SparkBox.o
isStubUsed          0x2               build/default_-_avec_Bootloader/production/_ext/1295770447/SSL.o
Index_Read          0x1               build/default_-_avec_Bootloader/production/_ext/1472/log.o
utc_heure           0x2               build/default_-_avec_Bootloader/production/_ext/1472/0_SparkBox.o
activeUDPSocket     0x1               build/default_-_avec_Bootloader/production/_ext/1295770447/UDP.o
Index_Log           0x1               build/default_-_avec_Bootloader/production/_ext/1472/log.o
erreur_eeprom_cpt1s
                    0x4               build/default_-_avec_Bootloader/production/_ext/1472/Eeprom_i2c.o
curHTTPID           0x1               build/default_-_avec_Bootloader/production/_ext/1295770447/HTTP2.o
remoteNode          0xa               build/default_-_avec_Bootloader/production/_ext/1295770447/StackTsk.o
Tele1rxbuffer       0x80              build/default_-_avec_Bootloader/production/_ext/1472/rs232.o
NomFichierLog       0x14              build/default_-_avec_Bootloader/production/_ext/1472/log.o
SMTPClient          0x34              build/default_-_avec_Bootloader/production/_ext/1295770447/SMTP.o
Tele1rxcurrent      0x1               build/default_-_avec_Bootloader/production/_ext/1472/rs232.o
Tele1rxready        0x2               build/default_-_avec_Bootloader/production/_ext/1472/rs232.o
tdonnees_soir       0x4               build/default_-_avec_Bootloader/production/_ext/1472/HTTP_Donnees.o
isBufferUsed        0x2               build/default_-_avec_Bootloader/production/_ext/1295770447/SSL.o
newMynetmemo        0x76              build/default_-_avec_Bootloader/production/_ext/1472/HTTP_Mynetmemo.o
Mynetmemo           0x76              build/default_-_avec_Bootloader/production/_ext/1472/HTTP_Teleinfo.o
Filtre_Nb           0x11              build/default_-_avec_Bootloader/production/_ext/1472/Temperature.o
t_jour              0x8               build/default_-_avec_Bootloader/production/_ext/1472/0_SparkBox.o
NomFichierIndex     0x14              build/default_-_avec_Bootloader/production/_ext/1472/0_SparkBox.o
Sparkbox            0x46c             build/default_-_avec_Bootloader/production/_ext/1472/0_SparkBox.o
Tele2rxready        0x2               build/default_-_avec_Bootloader/production/_ext/1472/rs232.o
index_sav           0x8               build/default_-_avec_Bootloader/production/_ext/1472/Teleinfo.o
tm_data             0x24              build/default_-_avec_Bootloader/production/_ext/1472/HTTP_log.o
isHashUsed          0x2               build/default_-_avec_Bootloader/production/_ext/1295770447/SSL.o
Date_Ind            0x5               build/default_-_avec_Bootloader/production/_ext/1472/0_SparkBox.o
Http_byte2          0x1f4             build/default_-_avec_Bootloader/production/_ext/1472/HTTP_ADTEK.o
tm_donnees          0x24              build/default_-_avec_Bootloader/production/_ext/1472/HTTP_Donnees.o
Http_byte           0x1f4             build/default_-_avec_Bootloader/production/_ext/1472/HTTP_ADTEK.o
sslHash             0x5c              build/default_-_avec_Bootloader/production/_ext/1295770447/SSL.o
Valeur_Mediane      0x1               build/default_-_avec_Bootloader/production/_ext/1472/Temperature.o
lastBlock           0x40              build/default_-_avec_Bootloader/production/_ext/1295770447/Hashes.o
num                 0x1               build/default_-_avec_Bootloader/production/_ext/1472/HTTP_ADTEK.o
ptrHS               0x4               build/default_-_avec_Bootloader/production/_ext/1295770447/SSL.o
AppConfig           0x33              build/default_-_avec_Bootloader/production/_ext/1472/0_SparkBox.o
utc_sec             0x2               build/default_-_avec_Bootloader/production/_ext/1472/0_SparkBox.o
Tele_State          0x8               build/default_-_avec_Bootloader/production/_ext/1472/Teleinfo.o
cpt_tele            0x8               build/default_-_avec_Bootloader/production/_ext/1472/Teleinfo.o
Tele2rxcurrent      0x1               build/default_-_avec_Bootloader/production/_ext/1472/rs232.o
l_utc               0x8               build/default_-_avec_Bootloader/production/_ext/1472/0_SparkBox.o
UDPRxCount          0x2               build/default_-_avec_Bootloader/production/_ext/1295770447/UDP.o
Erreur_Http_Parametre
                    0x1               build/default_-_avec_Bootloader/production/_ext/1472/HTTP_Parametres.o
Tele2rxbuffer       0x80              build/default_-_avec_Bootloader/production/_ext/1472/rs232.o
Pwm                 0x4               build/default_-_avec_Bootloader/production/_ext/1472/Evse.o
Mynetmemo_Socket    0x280             build/default_-_avec_Bootloader/production/_ext/1472/HTTP_Teleinfo.o
sslBuffer           0x100             build/default_-_avec_Bootloader/production/_ext/1295770447/SSL.o
ADTEK_TS_Socket     0x28              build/default_-_avec_Bootloader/production/_ext/1472/RTC.o
error_crc           0x4               build/default_-_avec_Bootloader/production/_ext/1472/Teleinfo.o
t_minute            0x8               build/default_-_avec_Bootloader/production/_ext/1472/0_SparkBox.o
sslSession          0x50              build/default_-_avec_Bootloader/production/_ext/1295770447/SSL.o
i_utc               0x8               build/default_-_avec_Bootloader/production/_ext/1472/0_SparkBox.o
Analog              0x28              build/default_-_avec_Bootloader/production/_ext/1472/Analogique.o
Filtre_Temp         0x14              build/default_-_avec_Bootloader/production/_ext/1472/Temperature.o
ValidMessage        0x40              build/default_-_avec_Bootloader/production/_ext/1472/Teleinfo.o
UDPSocketInfo       0x1a4             build/default_-_avec_Bootloader/production/_ext/1295770447/UDP.o
analogCalc          0x20              build/default_-_avec_Bootloader/production/_ext/1472/0_SparkBox.o
httpStubs           0x10              build/default_-_avec_Bootloader/production/_ext/1295770447/HTTP2.o
Filtre_Ptr          0x11              build/default_-_avec_Bootloader/production/_ext/1472/Temperature.o
fj                  0x1               build/default_-_avec_Bootloader/production/_ext/1472/Temperature.o
Log                 0x1540            build/default_-_avec_Bootloader/production/_ext/1472/log.o
Evse                0x28              build/default_-_avec_Bootloader/production/_ext/1472/Evse.o
ADTEK_DataUrl       0x200             build/default_-_avec_Bootloader/production/_ext/1472/RTC.o
Temp_i              0x4               build/default_-_avec_Bootloader/production/_ext/1472/HTTP_ADTEK.o

Microchip PIC32 Memory-Usage Report

kseg0 Program-Memory Usage
section                    address  length [bytes]      (dec)  Description
-------                 ----------  -------------------------  -----------
.rodata                 0x9d007e00         0xa7b8       42936  Read-only const 
.text                   0x9d0125b8        0x1b0d8      110808  App's exec code 
.text._vfprintf_cdnopsu 0x9d02d690          0x8b8        2232   
.text                   0x9d02df48         0x20a0        8352  App's exec code 
.rodata                 0x9d02ffe8          0x7d4        2004  Read-only const 
.text                   0x9d0307bc         0x1a3c        6716  App's exec code 
.dinit                  0x9d0321f8          0x5b0        1456   
.rodata                 0x9d0327a8          0xb10        2832  Read-only const 
.text                   0x9d0332b8          0xe38        3640  App's exec code 
.rodata                 0x9d0340f0          0x484        1156  Read-only const 
.text                   0x9d034574         0x25a4        9636  App's exec code 
.rodata                 0x9d036b18          0x2bc         700  Read-only const 
.text                   0x9d036dd4          0x538        1336  App's exec code 
.rodata                 0x9d03730c          0x290         656  Read-only const 
.text                   0x9d03759c          0x4ec        1260  App's exec code 
.rodata                 0x9d037a88          0x238         568  Read-only const 
.text                   0x9d037cc0          0x214         532  App's exec code 
.rodata                 0x9d037ed4          0x400        1024  Read-only const 
.text                   0x9d0382d4          0x1ec         492  App's exec code 
.rodata                 0x9d0384c0          0x1a0         416  Read-only const 
.text                   0x9d038660          0x328         808  App's exec code 
.rodata                 0x9d038988          0x170         368  Read-only const 
.text                   0x9d038af8          0x414        1044  App's exec code 
.rodata                 0x9d038f0c          0x140         320  Read-only const 
.text.fputc             0x9d03904c          0x128         296   
.text                   0x9d039174          0x240         576  App's exec code 
.text._flsbuf           0x9d0393b4          0x110         272   
.rodata                 0x9d0394c4          0x104         260  Read-only const 
.text                   0x9d0395c8           0xfc         252  App's exec code 
.rodata                 0x9d0396c4          0x1e8         488  Read-only const 
.text                   0x9d0398ac           0xf0         240  App's exec code 
.text.general_exception 0x9d03999c           0xdc         220   
.text.mktime            0x9d039a78           0xd8         216   
.rodata                 0x9d039b50           0xd0         208  Read-only const 
.text._mon_putc         0x9d039c20           0xb4         180   
.text                   0x9d039cd4          0x148         328  App's exec code 
.rodata                 0x9d039e1c          0x130         304  Read-only const 
.text                   0x9d039f4c           0x98         152  App's exec code 
.text.atol              0x9d039fe4           0x90         144   
.text.ymd_to_scalar     0x9d03a074           0x90         144   
.text.write             0x9d03a104           0x88         136   
.text.atoi              0x9d03a18c           0x84         132   
.rodata                 0x9d03a210           0x78         120  Read-only const 
.text.SoftReset         0x9d03a288           0x78         120   
.text.UARTEnable        0x9d03a300           0x78         120   
.text.strstr            0x9d03a378           0x78         120   
.rodata                 0x9d03a3f0           0x68         104  Read-only const 
.text.ultoa             0x9d03a458           0x68         104   
.text._sprintf_cdnopsux 0x9d03a4c0           0x64         100   
.rodata                 0x9d03a524           0x5c          92  Read-only const 
.text.UARTSetDataRate   0x9d03a580           0x5c          92   
.rodata                 0x9d03a5dc           0xac         172  Read-only const 
.text.I2CBusIsIdle      0x9d03a688           0x54          84   
.rodata                 0x9d03a6dc           0x50          80  Read-only const 
.text.sqrtf             0x9d03a72c           0x50          80   
.text.strncpy           0x9d03a77c           0x50          80   
.text.main_entry        0x9d03a7cc           0x4c          76   
.text.INTEnable         0x9d03a818           0x4c          76   
.text                   0x9d03a864           0x4c          76  App's exec code 
.text.I2CSetFrequency   0x9d03a8b0           0x48          72   
.text.I2CAcknowledgeByt 0x9d03a8f8           0x44          68   
.text.I2CGetStatus      0x9d03a93c           0x44          68   
.text                   0x9d03a980           0x44          68  App's exec code 
.text.strncmp           0x9d03a9c4           0x44          68   
.text                   0x9d03aa08           0x44          68  App's exec code 
.text.ltoa              0x9d03aa4c           0x40          64   
.text.UARTConfigure     0x9d03aa8c           0x3c          60   
.text.years_to_days     0x9d03aac8           0x3c          60   
.rodata                 0x9d03ab04           0x70         112  Read-only const 
.text.I2CReceiverEnable 0x9d03ab74           0x38          56   
.text._bootstrap_except 0x9d03abac           0x38          56   
.text.INTEnableSystemMu 0x9d03abe4           0x34          52   
.text.I2CSendByte       0x9d03ac18           0x34          52   
.text.I2CStart          0x9d03ac4c           0x34          52   
.text.I2CRepeatStart    0x9d03ac80           0x30          48   
.text.strcat            0x9d03acb0           0x30          48   
.text.strchr            0x9d03ace0           0x2c          44   
.rodata                 0x9d03ad0c           0x28          40  Read-only const 
.text.INTClearFlag      0x9d03ad34           0x28          40   
.text.UARTSetFifoMode   0x9d03ad5c           0x28          40   
.text.UARTSetLineContro 0x9d03ad84           0x28          40   
.text.I2CEnable         0x9d03adac           0x28          40   
.text.I2CByteWasAcknowl 0x9d03add4           0x24          36   
.text.I2CStop           0x9d03adf8           0x24          36   
.text.I2CTransmissionHa 0x9d03ae1c           0x24          36   
.text.I2CTransmitterIsR 0x9d03ae40           0x24          36   
.text.toupper           0x9d03ae64           0x24          36   
.rodata                 0x9d03ae88           0x20          32  Read-only const 
.text.I2CGetByte        0x9d03aea8           0x20          32   
.text.I2CReceivedDataIs 0x9d03aec8           0x20          32   
.rodata                 0x9d03aee8           0x1c          28  Read-only const 
.text.INTRestoreInterru 0x9d03af04           0x1c          28   
.text.CheKseg0CacheOn   0x9d03af20           0x18          24   
.rodata                 0x9d03af38           0x18          24  Read-only const 
.text                   0x9d03af50           0x18          24  App's exec code 
.rodata                 0x9d03af68           0x30          48  Read-only const 
.text.INTDisableInterru 0x9d03af98            0x8           8   
.text.INTEnableInterrup 0x9d03afa0            0x8           8   
.text._on_reset         0x9d03afa8            0x8           8   
.text._on_bootstrap     0x9d03afb0            0x8           8   
.rodata                 0x9d03afb8            0x4           4  Read-only const 
      Total kseg0_program_mem used  :     0x331bc      209340  42.5% of 0x78200

kseg0 Boot-Memory Usage
section                    address  length [bytes]      (dec)  Description
-------                 ----------  -------------------------  -----------
         Total kseg0_boot_mem used  :           0           0  <1% of 0x970

Exception-Memory Usage 
section                    address  length [bytes]      (dec)  Description
-------                 ----------  -------------------------  -----------
.app_excpt              0x9d006180           0x10          16  General-Exception 
.vector_4               0x9d006280            0x8           8  Interrupt Vector 4 
.vector_8               0x9d006300            0x8           8  Interrupt Vector 8 
.vector_12              0x9d006380            0x8           8  Interrupt Vector 12 
.vector_27              0x9d006560            0x8           8  Interrupt Vector 27 
.vector_49              0x9d006820            0x8           8  Interrupt Vector 49 
.vector_51              0x9d006860            0x8           8  Interrupt Vector 51 
          Total exception_mem used  :        0x40          64  1.6% of 0x1000

kseg1 Boot-Memory Usage
section                    address  length [bytes]      (dec)  Description
-------                 ----------  -------------------------  -----------
.reset                  0x9d007970          0x1e8         488  Reset handler 
.bev_excpt              0x9d007cf0           0x10          16  BEV-Exception 
         Total kseg1_boot_mem used  :       0x1f8         504  43.2% of 0x490
        --------------------------------------------------------------------------
         Total Program Memory used  :     0x333f4      209908  42.0% of 0x7a000
        --------------------------------------------------------------------------


kseg1 Data-Memory Usage
section                    address  length [bytes]      (dec)  Description
-------                 ----------  -------------------------  -----------
.eh_frame               0xa0000000           0x40          64   
.sdata                  0xa0000040           0x38          56  Small init data 
.sbss                   0xa0000078          0x2ac         684  Small uninit data 
.bss                    0xa0000324         0x2f70       12144  Uninitialized data 
.bss                    0xa0003294          0x190         400  Uninitialized data 
.data                   0xa0003424           0xa0         160  Initialized data 
.bss                    0xa00034c4          0x14c         332  Uninitialized data 
.data                   0xa0003610           0x50          80  Initialized data 
.bss                    0xa0003660           0xb0         176  Uninitialized data 
.data                   0xa0003710           0x28          40  Initialized data 
.bss                    0xa0003738           0xac         172  Uninitialized data 
.data.math_errhandling_ 0xa00037e8            0x4           4   
         Total kseg1_data_mem used  :      0x37e8       14312  10.9% of 0x20000
        --------------------------------------------------------------------------
            Total Data Memory used  :      0x37e8       14312  10.9% of 0x20000
        --------------------------------------------------------------------------


Dynamic Data-Memory Reservation
section                    address  length [bytes]      (dec)  Description
-------                 ----------  -------------------------  -----------
heap                    0xa00037f8           0x10          16  Reserved for heap 
stack                   0xa0003820        0x1c7d8      116696  Reserved for stack 

        --------------------------------------------------------------------------

Discarded input sections

 .text          0x00000000        0x0 c:/program files (x86)/microchip/xc32/v1.31/bin/../lib/gcc/pic32mx/4.5.2/../../../../pic32mx/lib/./proc/32MX695F512L/crt0_mips32r2.o
 .data          0x00000000        0x0 c:/program files (x86)/microchip/xc32/v1.31/bin/../lib/gcc/pic32mx/4.5.2/../../../../pic32mx/lib/./proc/32MX695F512L/crt0_mips32r2.o
 .bss           0x00000000        0x0 c:/program files (x86)/microchip/xc32/v1.31/bin/../lib/gcc/pic32mx/4.5.2/../../../../pic32mx/lib/./proc/32MX695F512L/crt0_mips32r2.o
 .data          0x00000000        0x0 build/default_-_avec_Bootloader/production/_ext/1472/HTTP_Teleinfo.o
 .bss           0x00000000        0x0 build/default_-_avec_Bootloader/production/_ext/1472/HTTP_Teleinfo.o
 .reginfo       0x00000000       0x18 build/default_-_avec_Bootloader/production/_ext/1472/HTTP_Teleinfo.o
 .data          0x00000000        0x0 build/default_-_avec_Bootloader/production/_ext/1472/HTTP_Reseau.o
 .bss           0x00000000        0x0 build/default_-_avec_Bootloader/production/_ext/1472/HTTP_Reseau.o
 .reginfo       0x00000000       0x18 build/default_-_avec_Bootloader/production/_ext/1472/HTTP_Reseau.o
 .data          0x00000000        0x0 build/default_-_avec_Bootloader/production/_ext/1472/HTTP_Mynetmemo.o
 .bss           0x00000000        0x0 build/default_-_avec_Bootloader/production/_ext/1472/HTTP_Mynetmemo.o
 .reginfo       0x00000000       0x18 build/default_-_avec_Bootloader/production/_ext/1472/HTTP_Mynetmemo.o
 .data          0x00000000        0x0 build/default_-_avec_Bootloader/production/_ext/1472/HTTP_Password.o
 .bss           0x00000000        0x0 build/default_-_avec_Bootloader/production/_ext/1472/HTTP_Password.o
 .reginfo       0x00000000       0x18 build/default_-_avec_Bootloader/production/_ext/1472/HTTP_Password.o
 .data          0x00000000        0x0 build/default_-_avec_Bootloader/production/_ext/1472/HTTP_log.o
 .bss           0x00000000        0x0 build/default_-_avec_Bootloader/production/_ext/1472/HTTP_log.o
 .reginfo       0x00000000       0x18 build/default_-_avec_Bootloader/production/_ext/1472/HTTP_log.o
 .data          0x00000000        0x0 build/default_-_avec_Bootloader/production/_ext/1472/HTTP_cmd.o
 .bss           0x00000000        0x0 build/default_-_avec_Bootloader/production/_ext/1472/HTTP_cmd.o
 .reginfo       0x00000000       0x18 build/default_-_avec_Bootloader/production/_ext/1472/HTTP_cmd.o
 .data          0x00000000        0x0 build/default_-_avec_Bootloader/production/_ext/1472/HTTP_Parametres.o
 .bss           0x00000000        0x0 build/default_-_avec_Bootloader/production/_ext/1472/HTTP_Parametres.o
 .reginfo       0x00000000       0x18 build/default_-_avec_Bootloader/production/_ext/1472/HTTP_Parametres.o
 .data          0x00000000        0x0 build/default_-_avec_Bootloader/production/_ext/1472/HTTP_Donnees.o
 .bss           0x00000000        0x0 build/default_-_avec_Bootloader/production/_ext/1472/HTTP_Donnees.o
 .reginfo       0x00000000       0x18 build/default_-_avec_Bootloader/production/_ext/1472/HTTP_Donnees.o
 COMMON         0x00000000       0x24 build/default_-_avec_Bootloader/production/_ext/1472/HTTP_Donnees.o
 .data          0x00000000        0x0 build/default_-_avec_Bootloader/production/_ext/1472/HTTP_Index.o
 .bss           0x00000000        0x0 build/default_-_avec_Bootloader/production/_ext/1472/HTTP_Index.o
 .reginfo       0x00000000       0x18 build/default_-_avec_Bootloader/production/_ext/1472/HTTP_Index.o
 .data          0x00000000        0x0 build/default_-_avec_Bootloader/production/_ext/1472/HTTP_ADTEK.o
 .bss           0x00000000        0x0 build/default_-_avec_Bootloader/production/_ext/1472/HTTP_ADTEK.o
 .reginfo       0x00000000       0x18 build/default_-_avec_Bootloader/production/_ext/1472/HTTP_ADTEK.o
 .data          0x00000000        0x0 build/default_-_avec_Bootloader/production/_ext/1295770447/Announce.o
 .bss           0x00000000        0x0 build/default_-_avec_Bootloader/production/_ext/1295770447/Announce.o
 .reginfo       0x00000000       0x18 build/default_-_avec_Bootloader/production/_ext/1295770447/Announce.o
 .data          0x00000000        0x0 build/default_-_avec_Bootloader/production/_ext/1295770447/ARP.o
 .reginfo       0x00000000       0x18 build/default_-_avec_Bootloader/production/_ext/1295770447/ARP.o
 .data          0x00000000        0x0 build/default_-_avec_Bootloader/production/_ext/1295770447/Delay.o
 .bss           0x00000000        0x0 build/default_-_avec_Bootloader/production/_ext/1295770447/Delay.o
 .reginfo       0x00000000       0x18 build/default_-_avec_Bootloader/production/_ext/1295770447/Delay.o
 .data          0x00000000        0x0 build/default_-_avec_Bootloader/production/_ext/1295770447/DHCP.o
 .reginfo       0x00000000       0x18 build/default_-_avec_Bootloader/production/_ext/1295770447/DHCP.o
 .text          0x00000000        0x0 build/default_-_avec_Bootloader/production/_ext/1295770447/DHCPs.o
 .data          0x00000000        0x0 build/default_-_avec_Bootloader/production/_ext/1295770447/DHCPs.o
 .bss           0x00000000        0x0 build/default_-_avec_Bootloader/production/_ext/1295770447/DHCPs.o
 .reginfo       0x00000000       0x18 build/default_-_avec_Bootloader/production/_ext/1295770447/DHCPs.o
 .data          0x00000000        0x0 build/default_-_avec_Bootloader/production/_ext/1295770447/DNS.o
 .reginfo       0x00000000       0x18 build/default_-_avec_Bootloader/production/_ext/1295770447/DNS.o
 .text          0x00000000        0x0 build/default_-_avec_Bootloader/production/_ext/1295770447/DynDNS.o
 .data          0x00000000        0x0 build/default_-_avec_Bootloader/production/_ext/1295770447/DynDNS.o
 .bss           0x00000000        0x0 build/default_-_avec_Bootloader/production/_ext/1295770447/DynDNS.o
 .reginfo       0x00000000       0x18 build/default_-_avec_Bootloader/production/_ext/1295770447/DynDNS.o
 .text          0x00000000        0x0 build/default_-_avec_Bootloader/production/_ext/1295770447/FTP.o
 .data          0x00000000        0x0 build/default_-_avec_Bootloader/production/_ext/1295770447/FTP.o
 .bss           0x00000000        0x0 build/default_-_avec_Bootloader/production/_ext/1295770447/FTP.o
 .reginfo       0x00000000       0x18 build/default_-_avec_Bootloader/production/_ext/1295770447/FTP.o
 .data          0x00000000        0x0 build/default_-_avec_Bootloader/production/_ext/1295770447/Hashes.o
 .bss           0x00000000        0x0 build/default_-_avec_Bootloader/production/_ext/1295770447/Hashes.o
 .reginfo       0x00000000       0x18 build/default_-_avec_Bootloader/production/_ext/1295770447/Hashes.o
 .data          0x00000000        0x0 build/default_-_avec_Bootloader/production/_ext/1295770447/Helpers.o
 .bss           0x00000000        0x0 build/default_-_avec_Bootloader/production/_ext/1295770447/Helpers.o
 .reginfo       0x00000000       0x18 build/default_-_avec_Bootloader/production/_ext/1295770447/Helpers.o
 .data          0x00000000        0x0 build/default_-_avec_Bootloader/production/_ext/1295770447/HTTP2.o
 .bss           0x00000000        0x0 build/default_-_avec_Bootloader/production/_ext/1295770447/HTTP2.o
 .reginfo       0x00000000       0x18 build/default_-_avec_Bootloader/production/_ext/1295770447/HTTP2.o
 .data          0x00000000        0x0 build/default_-_avec_Bootloader/production/_ext/1295770447/ICMP.o
 .bss           0x00000000        0x0 build/default_-_avec_Bootloader/production/_ext/1295770447/ICMP.o
 .reginfo       0x00000000       0x18 build/default_-_avec_Bootloader/production/_ext/1295770447/ICMP.o
 .data          0x00000000        0x0 build/default_-_avec_Bootloader/production/_ext/1295770447/IP.o
 .bss           0x00000000        0x0 build/default_-_avec_Bootloader/production/_ext/1295770447/IP.o
 .reginfo       0x00000000       0x18 build/default_-_avec_Bootloader/production/_ext/1295770447/IP.o
 .data          0x00000000        0x0 build/default_-_avec_Bootloader/production/_ext/1295770447/MPFS2.o
 .reginfo       0x00000000       0x18 build/default_-_avec_Bootloader/production/_ext/1295770447/MPFS2.o
 .data          0x00000000        0x0 build/default_-_avec_Bootloader/production/_ext/1295770447/NBNS.o
 .bss           0x00000000        0x0 build/default_-_avec_Bootloader/production/_ext/1295770447/NBNS.o
 .reginfo       0x00000000       0x18 build/default_-_avec_Bootloader/production/_ext/1295770447/NBNS.o
 .data          0x00000000        0x0 build/default_-_avec_Bootloader/production/_ext/1295770447/SMTP.o
 .bss           0x00000000        0x0 build/default_-_avec_Bootloader/production/_ext/1295770447/SMTP.o
 .reginfo       0x00000000       0x18 build/default_-_avec_Bootloader/production/_ext/1295770447/SMTP.o
 .text          0x00000000        0x0 build/default_-_avec_Bootloader/production/_ext/1295770447/SNMP.o
 .data          0x00000000        0x0 build/default_-_avec_Bootloader/production/_ext/1295770447/SNMP.o
 .bss           0x00000000        0x0 build/default_-_avec_Bootloader/production/_ext/1295770447/SNMP.o
 .reginfo       0x00000000       0x18 build/default_-_avec_Bootloader/production/_ext/1295770447/SNMP.o
 .text          0x00000000        0x0 build/default_-_avec_Bootloader/production/_ext/1295770447/SNTP.o
 .data          0x00000000        0x0 build/default_-_avec_Bootloader/production/_ext/1295770447/SNTP.o
 .bss           0x00000000        0x0 build/default_-_avec_Bootloader/production/_ext/1295770447/SNTP.o
 .reginfo       0x00000000       0x18 build/default_-_avec_Bootloader/production/_ext/1295770447/SNTP.o
 .text          0x00000000        0x0 build/default_-_avec_Bootloader/production/_ext/1295770447/SPIEEPROM.o
 .data          0x00000000        0x0 build/default_-_avec_Bootloader/production/_ext/1295770447/SPIEEPROM.o
 .bss           0x00000000        0x0 build/default_-_avec_Bootloader/production/_ext/1295770447/SPIEEPROM.o
 .reginfo       0x00000000       0x18 build/default_-_avec_Bootloader/production/_ext/1295770447/SPIEEPROM.o
 .text          0x00000000        0x0 build/default_-_avec_Bootloader/production/_ext/1295770447/SPIFlash.o
 .data          0x00000000        0x0 build/default_-_avec_Bootloader/production/_ext/1295770447/SPIFlash.o
 .bss           0x00000000        0x0 build/default_-_avec_Bootloader/production/_ext/1295770447/SPIFlash.o
 .reginfo       0x00000000       0x18 build/default_-_avec_Bootloader/production/_ext/1295770447/SPIFlash.o
 .text          0x00000000        0x0 build/default_-_avec_Bootloader/production/_ext/1295770447/SPIRAM.o
 .data          0x00000000        0x0 build/default_-_avec_Bootloader/production/_ext/1295770447/SPIRAM.o
 .bss           0x00000000        0x0 build/default_-_avec_Bootloader/production/_ext/1295770447/SPIRAM.o
 .reginfo       0x00000000       0x18 build/default_-_avec_Bootloader/production/_ext/1295770447/SPIRAM.o
 .data          0x00000000        0x0 build/default_-_avec_Bootloader/production/_ext/1295770447/StackTsk.o
 .bss           0x00000000        0x0 build/default_-_avec_Bootloader/production/_ext/1295770447/StackTsk.o
 .reginfo       0x00000000       0x18 build/default_-_avec_Bootloader/production/_ext/1295770447/StackTsk.o
 .data          0x00000000        0x0 build/default_-_avec_Bootloader/production/_ext/1295770447/TCP.o
 .reginfo       0x00000000       0x18 build/default_-_avec_Bootloader/production/_ext/1295770447/TCP.o
 .text          0x00000000        0x0 build/default_-_avec_Bootloader/production/_ext/1295770447/Telnet.o
 .data          0x00000000        0x0 build/default_-_avec_Bootloader/production/_ext/1295770447/Telnet.o
 .bss           0x00000000        0x0 build/default_-_avec_Bootloader/production/_ext/1295770447/Telnet.o
 .reginfo       0x00000000       0x18 build/default_-_avec_Bootloader/production/_ext/1295770447/Telnet.o
 .text          0x00000000        0x0 build/default_-_avec_Bootloader/production/_ext/1295770447/TFTPc.o
 .data          0x00000000        0x0 build/default_-_avec_Bootloader/production/_ext/1295770447/TFTPc.o
 .bss           0x00000000        0x0 build/default_-_avec_Bootloader/production/_ext/1295770447/TFTPc.o
 .reginfo       0x00000000       0x18 build/default_-_avec_Bootloader/production/_ext/1295770447/TFTPc.o
 .data          0x00000000        0x0 build/default_-_avec_Bootloader/production/_ext/1295770447/Tick.o
 .bss           0x00000000        0x0 build/default_-_avec_Bootloader/production/_ext/1295770447/Tick.o
 .reginfo       0x00000000       0x18 build/default_-_avec_Bootloader/production/_ext/1295770447/Tick.o
 .text          0x00000000        0x0 build/default_-_avec_Bootloader/production/_ext/1295770447/UART.o
 .data          0x00000000        0x0 build/default_-_avec_Bootloader/production/_ext/1295770447/UART.o
 .bss           0x00000000        0x0 build/default_-_avec_Bootloader/production/_ext/1295770447/UART.o
 .reginfo       0x00000000       0x18 build/default_-_avec_Bootloader/production/_ext/1295770447/UART.o
 .data          0x00000000        0x0 build/default_-_avec_Bootloader/production/_ext/1295770447/UDP.o
 .bss           0x00000000        0x0 build/default_-_avec_Bootloader/production/_ext/1295770447/UDP.o
 .reginfo       0x00000000       0x18 build/default_-_avec_Bootloader/production/_ext/1295770447/UDP.o
 .text          0x00000000        0x0 build/default_-_avec_Bootloader/production/_ext/1472/MPFSImg2.o
 .data          0x00000000        0x0 build/default_-_avec_Bootloader/production/_ext/1472/MPFSImg2.o
 .bss           0x00000000        0x0 build/default_-_avec_Bootloader/production/_ext/1472/MPFSImg2.o
 .reginfo       0x00000000       0x18 build/default_-_avec_Bootloader/production/_ext/1472/MPFSImg2.o
 .data          0x00000000        0x0 build/default_-_avec_Bootloader/production/_ext/1295770447/Random.o
 .reginfo       0x00000000       0x18 build/default_-_avec_Bootloader/production/_ext/1295770447/Random.o
 .text          0x00000000        0x0 build/default_-_avec_Bootloader/production/_ext/1295770447/RSA.o
 .data          0x00000000        0x0 build/default_-_avec_Bootloader/production/_ext/1295770447/RSA.o
 .bss           0x00000000        0x0 build/default_-_avec_Bootloader/production/_ext/1295770447/RSA.o
 .reginfo       0x00000000       0x18 build/default_-_avec_Bootloader/production/_ext/1295770447/RSA.o
 .data          0x00000000        0x0 build/default_-_avec_Bootloader/production/_ext/1295770447/SSL.o
 .reginfo       0x00000000       0x18 build/default_-_avec_Bootloader/production/_ext/1295770447/SSL.o
 .data          0x00000000        0x0 build/default_-_avec_Bootloader/production/_ext/1295770447/ARCFOUR.o
 .bss           0x00000000        0x0 build/default_-_avec_Bootloader/production/_ext/1295770447/ARCFOUR.o
 .reginfo       0x00000000       0x18 build/default_-_avec_Bootloader/production/_ext/1295770447/ARCFOUR.o
 .text          0x00000000        0x0 build/default_-_avec_Bootloader/production/_ext/1295770447/BigInt.o
 .data          0x00000000        0x0 build/default_-_avec_Bootloader/production/_ext/1295770447/BigInt.o
 .bss           0x00000000        0x0 build/default_-_avec_Bootloader/production/_ext/1295770447/BigInt.o
 .reginfo       0x00000000       0x18 build/default_-_avec_Bootloader/production/_ext/1295770447/BigInt.o
 .text          0x00000000        0x0 build/default_-_avec_Bootloader/production/_ext/1295770447/BigInt_helper_C32.o
 .data          0x00000000        0x0 build/default_-_avec_Bootloader/production/_ext/1295770447/BigInt_helper_C32.o
 .bss           0x00000000        0x0 build/default_-_avec_Bootloader/production/_ext/1295770447/BigInt_helper_C32.o
 .reginfo       0x00000000       0x18 build/default_-_avec_Bootloader/production/_ext/1295770447/BigInt_helper_C32.o
 .text          0x00000000        0x0 build/default_-_avec_Bootloader/production/_ext/1295770447/AutoIP.o
 .data          0x00000000        0x0 build/default_-_avec_Bootloader/production/_ext/1295770447/AutoIP.o
 .bss           0x00000000        0x0 build/default_-_avec_Bootloader/production/_ext/1295770447/AutoIP.o
 .reginfo       0x00000000       0x18 build/default_-_avec_Bootloader/production/_ext/1295770447/AutoIP.o
 .text          0x00000000        0x0 build/default_-_avec_Bootloader/production/_ext/1295770447/DNSs.o
 .data          0x00000000        0x0 build/default_-_avec_Bootloader/production/_ext/1295770447/DNSs.o
 .bss           0x00000000        0x0 build/default_-_avec_Bootloader/production/_ext/1295770447/DNSs.o
 .reginfo       0x00000000       0x18 build/default_-_avec_Bootloader/production/_ext/1295770447/DNSs.o
 .data          0x00000000        0x0 build/default_-_avec_Bootloader/production/_ext/1295770447/ENCX24J600.o
 .bss           0x00000000        0x0 build/default_-_avec_Bootloader/production/_ext/1295770447/ENCX24J600.o
 .reginfo       0x00000000       0x18 build/default_-_avec_Bootloader/production/_ext/1295770447/ENCX24J600.o
 .text          0x00000000        0x0 build/default_-_avec_Bootloader/production/_ext/1295770447/ETHPIC32ExtPhy.o
 .data          0x00000000        0x0 build/default_-_avec_Bootloader/production/_ext/1295770447/ETHPIC32ExtPhy.o
 .bss           0x00000000        0x0 build/default_-_avec_Bootloader/production/_ext/1295770447/ETHPIC32ExtPhy.o
 .reginfo       0x00000000       0x18 build/default_-_avec_Bootloader/production/_ext/1295770447/ETHPIC32ExtPhy.o
 .text          0x00000000        0x0 build/default_-_avec_Bootloader/production/_ext/1295770447/ETHPIC32ExtPhyDP83848.o
 .data          0x00000000        0x0 build/default_-_avec_Bootloader/production/_ext/1295770447/ETHPIC32ExtPhyDP83848.o
 .bss           0x00000000        0x0 build/default_-_avec_Bootloader/production/_ext/1295770447/ETHPIC32ExtPhyDP83848.o
 .reginfo       0x00000000       0x18 build/default_-_avec_Bootloader/production/_ext/1295770447/ETHPIC32ExtPhyDP83848.o
 .text          0x00000000        0x0 build/default_-_avec_Bootloader/production/_ext/1295770447/ETHPIC32IntMac.o
 .data          0x00000000        0x0 build/default_-_avec_Bootloader/production/_ext/1295770447/ETHPIC32IntMac.o
 .bss           0x00000000        0x0 build/default_-_avec_Bootloader/production/_ext/1295770447/ETHPIC32IntMac.o
 .reginfo       0x00000000       0x18 build/default_-_avec_Bootloader/production/_ext/1295770447/ETHPIC32IntMac.o
 .data          0x00000000        0x0 build/default_-_avec_Bootloader/production/_ext/1472/rs232.o
 .bss           0x00000000        0x0 build/default_-_avec_Bootloader/production/_ext/1472/rs232.o
 .reginfo       0x00000000       0x18 build/default_-_avec_Bootloader/production/_ext/1472/rs232.o
 .data          0x00000000        0x0 build/default_-_avec_Bootloader/production/_ext/1472/Mynetmemo.o
 .reginfo       0x00000000       0x18 build/default_-_avec_Bootloader/production/_ext/1472/Mynetmemo.o
 .data          0x00000000        0x0 build/default_-_avec_Bootloader/production/_ext/1472/Eeprom_i2c.o
 .bss           0x00000000        0x0 build/default_-_avec_Bootloader/production/_ext/1472/Eeprom_i2c.o
 .reginfo       0x00000000       0x18 build/default_-_avec_Bootloader/production/_ext/1472/Eeprom_i2c.o
 .data          0x00000000        0x0 build/default_-_avec_Bootloader/production/_ext/1472/Temperature.o
 .reginfo       0x00000000       0x18 build/default_-_avec_Bootloader/production/_ext/1472/Temperature.o
 .data          0x00000000        0x0 build/default_-_avec_Bootloader/production/_ext/1472/Teleinfo.o
 .bss           0x00000000        0x0 build/default_-_avec_Bootloader/production/_ext/1472/Teleinfo.o
 .reginfo       0x00000000       0x18 build/default_-_avec_Bootloader/production/_ext/1472/Teleinfo.o
 .bss           0x00000000        0x0 build/default_-_avec_Bootloader/production/_ext/1472/log.o
 .reginfo       0x00000000       0x18 build/default_-_avec_Bootloader/production/_ext/1472/log.o
 .text          0x00000000        0x0 build/default_-_avec_Bootloader/production/_ext/1472/SSLCert.o
 .data          0x00000000        0x0 build/default_-_avec_Bootloader/production/_ext/1472/SSLCert.o
 .bss           0x00000000        0x0 build/default_-_avec_Bootloader/production/_ext/1472/SSLCert.o
 .reginfo       0x00000000       0x18 build/default_-_avec_Bootloader/production/_ext/1472/SSLCert.o
 .data          0x00000000        0x0 build/default_-_avec_Bootloader/production/_ext/1472/divers.o
 .reginfo       0x00000000       0x18 build/default_-_avec_Bootloader/production/_ext/1472/divers.o
 .data          0x00000000        0x0 build/default_-_avec_Bootloader/production/_ext/1472/SST25VF016.o
 .reginfo       0x00000000       0x18 build/default_-_avec_Bootloader/production/_ext/1472/SST25VF016.o
 .data          0x00000000        0x0 build/default_-_avec_Bootloader/production/_ext/1472/drv_spi.o
 .reginfo       0x00000000       0x18 build/default_-_avec_Bootloader/production/_ext/1472/drv_spi.o
 .data          0x00000000        0x0 build/default_-_avec_Bootloader/production/_ext/1472/mcp7941.o
 .bss           0x00000000        0x0 build/default_-_avec_Bootloader/production/_ext/1472/mcp7941.o
 .reginfo       0x00000000       0x18 build/default_-_avec_Bootloader/production/_ext/1472/mcp7941.o
 .reginfo       0x00000000       0x18 build/default_-_avec_Bootloader/production/_ext/1472/RTC.o
 .data          0x00000000        0x0 build/default_-_avec_Bootloader/production/_ext/1472/0_SparkBox.o
 .bss           0x00000000        0x0 build/default_-_avec_Bootloader/production/_ext/1472/0_SparkBox.o
 .reginfo       0x00000000       0x18 build/default_-_avec_Bootloader/production/_ext/1472/0_SparkBox.o
 .data          0x00000000        0x0 build/default_-_avec_Bootloader/production/_ext/1472/Lcd.o
 .bss           0x00000000        0x0 build/default_-_avec_Bootloader/production/_ext/1472/Lcd.o
 .reginfo       0x00000000       0x18 build/default_-_avec_Bootloader/production/_ext/1472/Lcd.o
 .data          0x00000000        0x0 build/default_-_avec_Bootloader/production/_ext/1472/Analogique.o
 .reginfo       0x00000000       0x18 build/default_-_avec_Bootloader/production/_ext/1472/Analogique.o
 .data          0x00000000        0x0 build/default_-_avec_Bootloader/production/_ext/1472/Evse.o
 .reginfo       0x00000000       0x18 build/default_-_avec_Bootloader/production/_ext/1472/Evse.o
 .data          0x00000000        0x0 build/default_-_avec_Bootloader/production/_ext/1472/i2c.o
 .bss           0x00000000        0x0 build/default_-_avec_Bootloader/production/_ext/1472/i2c.o
 .reginfo       0x00000000       0x18 build/default_-_avec_Bootloader/production/_ext/1472/i2c.o
 .data          0x00000000        0x0 build/default_-_avec_Bootloader/production/_ext/1472/BD_sst.o
 .bss           0x00000000        0x0 build/default_-_avec_Bootloader/production/_ext/1472/BD_sst.o
 .reginfo       0x00000000       0x18 build/default_-_avec_Bootloader/production/_ext/1472/BD_sst.o
 .text          0x00000000        0x0 c:/program files (x86)/microchip/xc32/v1.31/bin/../lib/gcc/pic32mx/4.5.2/../../../../pic32mx/lib/./proc/32MX695F512L\processor.o
 .data          0x00000000        0x0 c:/program files (x86)/microchip/xc32/v1.31/bin/../lib/gcc/pic32mx/4.5.2/../../../../pic32mx/lib/./proc/32MX695F512L\processor.o
 .bss           0x00000000        0x0 c:/program files (x86)/microchip/xc32/v1.31/bin/../lib/gcc/pic32mx/4.5.2/../../../../pic32mx/lib/./proc/32MX695F512L\processor.o
 .reginfo       0x00000000       0x18 c:/program files (x86)/microchip/xc32/v1.31/bin/../lib/gcc/pic32mx/4.5.2/../../../../pic32mx/lib/./proc/32MX695F512L\processor.o
 .text          0x00000000        0x0 c:/program files (x86)/microchip/xc32/v1.31/bin/../lib/gcc/pic32mx/4.5.2/../../../../pic32mx/lib/size\libmchp_peripheral_32MX695F512L.a(soft_reset_lib.o)
 .data          0x00000000        0x0 c:/program files (x86)/microchip/xc32/v1.31/bin/../lib/gcc/pic32mx/4.5.2/../../../../pic32mx/lib/size\libmchp_peripheral_32MX695F512L.a(soft_reset_lib.o)
 .bss           0x00000000        0x0 c:/program files (x86)/microchip/xc32/v1.31/bin/../lib/gcc/pic32mx/4.5.2/../../../../pic32mx/lib/size\libmchp_peripheral_32MX695F512L.a(soft_reset_lib.o)
 .reginfo       0x00000000       0x18 c:/program files (x86)/microchip/xc32/v1.31/bin/../lib/gcc/pic32mx/4.5.2/../../../../pic32mx/lib/size\libmchp_peripheral_32MX695F512L.a(soft_reset_lib.o)
 .pdr           0x00000000       0x20 c:/program files (x86)/microchip/xc32/v1.31/bin/../lib/gcc/pic32mx/4.5.2/../../../../pic32mx/lib/size\libmchp_peripheral_32MX695F512L.a(soft_reset_lib.o)
 .text          0x00000000        0x0 c:/program files (x86)/microchip/xc32/v1.31/bin/../lib/gcc/pic32mx/4.5.2/../../../../pic32mx/lib/size\libmchp_peripheral_32MX695F512L.a(pcache.o)
 .data          0x00000000        0x0 c:/program files (x86)/microchip/xc32/v1.31/bin/../lib/gcc/pic32mx/4.5.2/../../../../pic32mx/lib/size\libmchp_peripheral_32MX695F512L.a(pcache.o)
 .bss           0x00000000        0x0 c:/program files (x86)/microchip/xc32/v1.31/bin/../lib/gcc/pic32mx/4.5.2/../../../../pic32mx/lib/size\libmchp_peripheral_32MX695F512L.a(pcache.o)
 .reginfo       0x00000000       0x18 c:/program files (x86)/microchip/xc32/v1.31/bin/../lib/gcc/pic32mx/4.5.2/../../../../pic32mx/lib/size\libmchp_peripheral_32MX695F512L.a(pcache.o)
 .pdr           0x00000000       0x40 c:/program files (x86)/microchip/xc32/v1.31/bin/../lib/gcc/pic32mx/4.5.2/../../../../pic32mx/lib/size\libmchp_peripheral_32MX695F512L.a(pcache.o)
 .text.CheKseg0CacheOff
                0x00000000       0x18 c:/program files (x86)/microchip/xc32/v1.31/bin/../lib/gcc/pic32mx/4.5.2/../../../../pic32mx/lib/size\libmchp_peripheral_32MX695F512L.a(pcache.o)
 .text          0x00000000        0x0 c:/program files (x86)/microchip/xc32/v1.31/bin/../lib/gcc/pic32mx/4.5.2/../../../../pic32mx/lib/size\libmchp_peripheral_32MX695F512L.a(int_disable_interrupts_lib.o)
 .data          0x00000000        0x0 c:/program files (x86)/microchip/xc32/v1.31/bin/../lib/gcc/pic32mx/4.5.2/../../../../pic32mx/lib/size\libmchp_peripheral_32MX695F512L.a(int_disable_interrupts_lib.o)
 .bss           0x00000000        0x0 c:/program files (x86)/microchip/xc32/v1.31/bin/../lib/gcc/pic32mx/4.5.2/../../../../pic32mx/lib/size\libmchp_peripheral_32MX695F512L.a(int_disable_interrupts_lib.o)
 .reginfo       0x00000000       0x18 c:/program files (x86)/microchip/xc32/v1.31/bin/../lib/gcc/pic32mx/4.5.2/../../../../pic32mx/lib/size\libmchp_peripheral_32MX695F512L.a(int_disable_interrupts_lib.o)
 .pdr           0x00000000       0x20 c:/program files (x86)/microchip/xc32/v1.31/bin/../lib/gcc/pic32mx/4.5.2/../../../../pic32mx/lib/size\libmchp_peripheral_32MX695F512L.a(int_disable_interrupts_lib.o)
 .text          0x00000000        0x0 c:/program files (x86)/microchip/xc32/v1.31/bin/../lib/gcc/pic32mx/4.5.2/../../../../pic32mx/lib/size\libmchp_peripheral_32MX695F512L.a(int_restore_interrupts_lib.o)
 .data          0x00000000        0x0 c:/program files (x86)/microchip/xc32/v1.31/bin/../lib/gcc/pic32mx/4.5.2/../../../../pic32mx/lib/size\libmchp_peripheral_32MX695F512L.a(int_restore_interrupts_lib.o)
 .bss           0x00000000        0x0 c:/program files (x86)/microchip/xc32/v1.31/bin/../lib/gcc/pic32mx/4.5.2/../../../../pic32mx/lib/size\libmchp_peripheral_32MX695F512L.a(int_restore_interrupts_lib.o)
 .reginfo       0x00000000       0x18 c:/program files (x86)/microchip/xc32/v1.31/bin/../lib/gcc/pic32mx/4.5.2/../../../../pic32mx/lib/size\libmchp_peripheral_32MX695F512L.a(int_restore_interrupts_lib.o)
 .pdr           0x00000000       0x20 c:/program files (x86)/microchip/xc32/v1.31/bin/../lib/gcc/pic32mx/4.5.2/../../../../pic32mx/lib/size\libmchp_peripheral_32MX695F512L.a(int_restore_interrupts_lib.o)
 .text          0x00000000        0x0 c:/program files (x86)/microchip/xc32/v1.31/bin/../lib/gcc/pic32mx/4.5.2/../../../../pic32mx/lib/size\libmchp_peripheral_32MX695F512L.a(int_enable_mv_int_lib.o)
 .data          0x00000000        0x0 c:/program files (x86)/microchip/xc32/v1.31/bin/../lib/gcc/pic32mx/4.5.2/../../../../pic32mx/lib/size\libmchp_peripheral_32MX695F512L.a(int_enable_mv_int_lib.o)
 .bss           0x00000000        0x0 c:/program files (x86)/microchip/xc32/v1.31/bin/../lib/gcc/pic32mx/4.5.2/../../../../pic32mx/lib/size\libmchp_peripheral_32MX695F512L.a(int_enable_mv_int_lib.o)
 .reginfo       0x00000000       0x18 c:/program files (x86)/microchip/xc32/v1.31/bin/../lib/gcc/pic32mx/4.5.2/../../../../pic32mx/lib/size\libmchp_peripheral_32MX695F512L.a(int_enable_mv_int_lib.o)
 .pdr           0x00000000       0x20 c:/program files (x86)/microchip/xc32/v1.31/bin/../lib/gcc/pic32mx/4.5.2/../../../../pic32mx/lib/size\libmchp_peripheral_32MX695F512L.a(int_enable_mv_int_lib.o)
 .text          0x00000000        0x0 c:/program files (x86)/microchip/xc32/v1.31/bin/../lib/gcc/pic32mx/4.5.2/../../../../pic32mx/lib/size\libmchp_peripheral_32MX695F512L.a(int_tbl_lib.o)
 .data          0x00000000        0x0 c:/program files (x86)/microchip/xc32/v1.31/bin/../lib/gcc/pic32mx/4.5.2/../../../../pic32mx/lib/size\libmchp_peripheral_32MX695F512L.a(int_tbl_lib.o)
 .bss           0x00000000        0x0 c:/program files (x86)/microchip/xc32/v1.31/bin/../lib/gcc/pic32mx/4.5.2/../../../../pic32mx/lib/size\libmchp_peripheral_32MX695F512L.a(int_tbl_lib.o)
 .reginfo       0x00000000       0x18 c:/program files (x86)/microchip/xc32/v1.31/bin/../lib/gcc/pic32mx/4.5.2/../../../../pic32mx/lib/size\libmchp_peripheral_32MX695F512L.a(int_tbl_lib.o)
 .pdr           0x00000000      0x120 c:/program files (x86)/microchip/xc32/v1.31/bin/../lib/gcc/pic32mx/4.5.2/../../../../pic32mx/lib/size\libmchp_peripheral_32MX695F512L.a(int_tbl_lib.o)
 .text.INTSetFlag
                0x00000000       0x28 c:/program files (x86)/microchip/xc32/v1.31/bin/../lib/gcc/pic32mx/4.5.2/../../../../pic32mx/lib/size\libmchp_peripheral_32MX695F512L.a(int_tbl_lib.o)
 .text.INTGetFlag
                0x00000000       0x28 c:/program files (x86)/microchip/xc32/v1.31/bin/../lib/gcc/pic32mx/4.5.2/../../../../pic32mx/lib/size\libmchp_peripheral_32MX695F512L.a(int_tbl_lib.o)
 .text.INTGetEnable
                0x00000000       0x28 c:/program files (x86)/microchip/xc32/v1.31/bin/../lib/gcc/pic32mx/4.5.2/../../../../pic32mx/lib/size\libmchp_peripheral_32MX695F512L.a(int_tbl_lib.o)
 .text.INTSetVectorPriority
                0x00000000       0x38 c:/program files (x86)/microchip/xc32/v1.31/bin/../lib/gcc/pic32mx/4.5.2/../../../../pic32mx/lib/size\libmchp_peripheral_32MX695F512L.a(int_tbl_lib.o)
 .text.INTGetVectorPriority
                0x00000000       0x2c c:/program files (x86)/microchip/xc32/v1.31/bin/../lib/gcc/pic32mx/4.5.2/../../../../pic32mx/lib/size\libmchp_peripheral_32MX695F512L.a(int_tbl_lib.o)
 .text.INTSetVectorSubPriority
                0x00000000       0x38 c:/program files (x86)/microchip/xc32/v1.31/bin/../lib/gcc/pic32mx/4.5.2/../../../../pic32mx/lib/size\libmchp_peripheral_32MX695F512L.a(int_tbl_lib.o)
 .text.INTGetVectorSubPriority
                0x00000000       0x2c c:/program files (x86)/microchip/xc32/v1.31/bin/../lib/gcc/pic32mx/4.5.2/../../../../pic32mx/lib/size\libmchp_peripheral_32MX695F512L.a(int_tbl_lib.o)
 .text          0x00000000        0x0 c:/program files (x86)/microchip/xc32/v1.31/bin/../lib/gcc/pic32mx/4.5.2/../../../../pic32mx/lib/size\libmchp_peripheral_32MX695F512L.a(uart_lib.o)
 .data          0x00000000        0x0 c:/program files (x86)/microchip/xc32/v1.31/bin/../lib/gcc/pic32mx/4.5.2/../../../../pic32mx/lib/size\libmchp_peripheral_32MX695F512L.a(uart_lib.o)
 .bss           0x00000000        0x0 c:/program files (x86)/microchip/xc32/v1.31/bin/../lib/gcc/pic32mx/4.5.2/../../../../pic32mx/lib/size\libmchp_peripheral_32MX695F512L.a(uart_lib.o)
 .reginfo       0x00000000       0x18 c:/program files (x86)/microchip/xc32/v1.31/bin/../lib/gcc/pic32mx/4.5.2/../../../../pic32mx/lib/size\libmchp_peripheral_32MX695F512L.a(uart_lib.o)
 .pdr           0x00000000      0x100 c:/program files (x86)/microchip/xc32/v1.31/bin/../lib/gcc/pic32mx/4.5.2/../../../../pic32mx/lib/size\libmchp_peripheral_32MX695F512L.a(uart_lib.o)
 .text.UARTGetDataRate
                0x00000000       0x40 c:/program files (x86)/microchip/xc32/v1.31/bin/../lib/gcc/pic32mx/4.5.2/../../../../pic32mx/lib/size\libmchp_peripheral_32MX695F512L.a(uart_lib.o)
 .text.UARTSetAddress
                0x00000000       0x3c c:/program files (x86)/microchip/xc32/v1.31/bin/../lib/gcc/pic32mx/4.5.2/../../../../pic32mx/lib/size\libmchp_peripheral_32MX695F512L.a(uart_lib.o)
 .text.UARTWatchForAddress
                0x00000000       0x38 c:/program files (x86)/microchip/xc32/v1.31/bin/../lib/gcc/pic32mx/4.5.2/../../../../pic32mx/lib/size\libmchp_peripheral_32MX695F512L.a(uart_lib.o)
 .text          0x00000000        0x0 c:/program files (x86)/microchip/xc32/v1.31/bin/../lib/gcc/pic32mx/4.5.2/../../../../pic32mx/lib/size\libmchp_peripheral_32MX695F512L.a(I2CAcknowledgeByte.o)
 .data          0x00000000        0x0 c:/program files (x86)/microchip/xc32/v1.31/bin/../lib/gcc/pic32mx/4.5.2/../../../../pic32mx/lib/size\libmchp_peripheral_32MX695F512L.a(I2CAcknowledgeByte.o)
 .bss           0x00000000        0x0 c:/program files (x86)/microchip/xc32/v1.31/bin/../lib/gcc/pic32mx/4.5.2/../../../../pic32mx/lib/size\libmchp_peripheral_32MX695F512L.a(I2CAcknowledgeByte.o)
 .reginfo       0x00000000       0x18 c:/program files (x86)/microchip/xc32/v1.31/bin/../lib/gcc/pic32mx/4.5.2/../../../../pic32mx/lib/size\libmchp_peripheral_32MX695F512L.a(I2CAcknowledgeByte.o)
 .pdr           0x00000000       0x20 c:/program files (x86)/microchip/xc32/v1.31/bin/../lib/gcc/pic32mx/4.5.2/../../../../pic32mx/lib/size\libmchp_peripheral_32MX695F512L.a(I2CAcknowledgeByte.o)
 .text          0x00000000        0x0 c:/program files (x86)/microchip/xc32/v1.31/bin/../lib/gcc/pic32mx/4.5.2/../../../../pic32mx/lib/size\libmchp_peripheral_32MX695F512L.a(I2CBusIsIdle.o)
 .data          0x00000000        0x0 c:/program files (x86)/microchip/xc32/v1.31/bin/../lib/gcc/pic32mx/4.5.2/../../../../pic32mx/lib/size\libmchp_peripheral_32MX695F512L.a(I2CBusIsIdle.o)
 .bss           0x00000000        0x0 c:/program files (x86)/microchip/xc32/v1.31/bin/../lib/gcc/pic32mx/4.5.2/../../../../pic32mx/lib/size\libmchp_peripheral_32MX695F512L.a(I2CBusIsIdle.o)
 .reginfo       0x00000000       0x18 c:/program files (x86)/microchip/xc32/v1.31/bin/../lib/gcc/pic32mx/4.5.2/../../../../pic32mx/lib/size\libmchp_peripheral_32MX695F512L.a(I2CBusIsIdle.o)
 .pdr           0x00000000       0x20 c:/program files (x86)/microchip/xc32/v1.31/bin/../lib/gcc/pic32mx/4.5.2/../../../../pic32mx/lib/size\libmchp_peripheral_32MX695F512L.a(I2CBusIsIdle.o)
 .text          0x00000000        0x0 c:/program files (x86)/microchip/xc32/v1.31/bin/../lib/gcc/pic32mx/4.5.2/../../../../pic32mx/lib/size\libmchp_peripheral_32MX695F512L.a(I2CByteWasAcknowledged.o)
 .data          0x00000000        0x0 c:/program files (x86)/microchip/xc32/v1.31/bin/../lib/gcc/pic32mx/4.5.2/../../../../pic32mx/lib/size\libmchp_peripheral_32MX695F512L.a(I2CByteWasAcknowledged.o)
 .bss           0x00000000        0x0 c:/program files (x86)/microchip/xc32/v1.31/bin/../lib/gcc/pic32mx/4.5.2/../../../../pic32mx/lib/size\libmchp_peripheral_32MX695F512L.a(I2CByteWasAcknowledged.o)
 .reginfo       0x00000000       0x18 c:/program files (x86)/microchip/xc32/v1.31/bin/../lib/gcc/pic32mx/4.5.2/../../../../pic32mx/lib/size\libmchp_peripheral_32MX695F512L.a(I2CByteWasAcknowledged.o)
 .pdr           0x00000000       0x20 c:/program files (x86)/microchip/xc32/v1.31/bin/../lib/gcc/pic32mx/4.5.2/../../../../pic32mx/lib/size\libmchp_peripheral_32MX695F512L.a(I2CByteWasAcknowledged.o)
 .text          0x00000000        0x0 c:/program files (x86)/microchip/xc32/v1.31/bin/../lib/gcc/pic32mx/4.5.2/../../../../pic32mx/lib/size\libmchp_peripheral_32MX695F512L.a(I2CEnable.o)
 .data          0x00000000        0x0 c:/program files (x86)/microchip/xc32/v1.31/bin/../lib/gcc/pic32mx/4.5.2/../../../../pic32mx/lib/size\libmchp_peripheral_32MX695F512L.a(I2CEnable.o)
 .bss           0x00000000        0x0 c:/program files (x86)/microchip/xc32/v1.31/bin/../lib/gcc/pic32mx/4.5.2/../../../../pic32mx/lib/size\libmchp_peripheral_32MX695F512L.a(I2CEnable.o)
 .reginfo       0x00000000       0x18 c:/program files (x86)/microchip/xc32/v1.31/bin/../lib/gcc/pic32mx/4.5.2/../../../../pic32mx/lib/size\libmchp_peripheral_32MX695F512L.a(I2CEnable.o)
 .pdr           0x00000000       0x20 c:/program files (x86)/microchip/xc32/v1.31/bin/../lib/gcc/pic32mx/4.5.2/../../../../pic32mx/lib/size\libmchp_peripheral_32MX695F512L.a(I2CEnable.o)
 .text          0x00000000        0x0 c:/program files (x86)/microchip/xc32/v1.31/bin/../lib/gcc/pic32mx/4.5.2/../../../../pic32mx/lib/size\libmchp_peripheral_32MX695F512L.a(I2CGetByte.o)
 .data          0x00000000        0x0 c:/program files (x86)/microchip/xc32/v1.31/bin/../lib/gcc/pic32mx/4.5.2/../../../../pic32mx/lib/size\libmchp_peripheral_32MX695F512L.a(I2CGetByte.o)
 .bss           0x00000000        0x0 c:/program files (x86)/microchip/xc32/v1.31/bin/../lib/gcc/pic32mx/4.5.2/../../../../pic32mx/lib/size\libmchp_peripheral_32MX695F512L.a(I2CGetByte.o)
 .reginfo       0x00000000       0x18 c:/program files (x86)/microchip/xc32/v1.31/bin/../lib/gcc/pic32mx/4.5.2/../../../../pic32mx/lib/size\libmchp_peripheral_32MX695F512L.a(I2CGetByte.o)
 .pdr           0x00000000       0x20 c:/program files (x86)/microchip/xc32/v1.31/bin/../lib/gcc/pic32mx/4.5.2/../../../../pic32mx/lib/size\libmchp_peripheral_32MX695F512L.a(I2CGetByte.o)
 .text          0x00000000        0x0 c:/program files (x86)/microchip/xc32/v1.31/bin/../lib/gcc/pic32mx/4.5.2/../../../../pic32mx/lib/size\libmchp_peripheral_32MX695F512L.a(I2CGetStatus.o)
 .data          0x00000000        0x0 c:/program files (x86)/microchip/xc32/v1.31/bin/../lib/gcc/pic32mx/4.5.2/../../../../pic32mx/lib/size\libmchp_peripheral_32MX695F512L.a(I2CGetStatus.o)
 .bss           0x00000000        0x0 c:/program files (x86)/microchip/xc32/v1.31/bin/../lib/gcc/pic32mx/4.5.2/../../../../pic32mx/lib/size\libmchp_peripheral_32MX695F512L.a(I2CGetStatus.o)
 .reginfo       0x00000000       0x18 c:/program files (x86)/microchip/xc32/v1.31/bin/../lib/gcc/pic32mx/4.5.2/../../../../pic32mx/lib/size\libmchp_peripheral_32MX695F512L.a(I2CGetStatus.o)
 .pdr           0x00000000       0x20 c:/program files (x86)/microchip/xc32/v1.31/bin/../lib/gcc/pic32mx/4.5.2/../../../../pic32mx/lib/size\libmchp_peripheral_32MX695F512L.a(I2CGetStatus.o)
 .text          0x00000000        0x0 c:/program files (x86)/microchip/xc32/v1.31/bin/../lib/gcc/pic32mx/4.5.2/../../../../pic32mx/lib/size\libmchp_peripheral_32MX695F512L.a(I2CReceivedDataIsAvailable.o)
 .data          0x00000000        0x0 c:/program files (x86)/microchip/xc32/v1.31/bin/../lib/gcc/pic32mx/4.5.2/../../../../pic32mx/lib/size\libmchp_peripheral_32MX695F512L.a(I2CReceivedDataIsAvailable.o)
 .bss           0x00000000        0x0 c:/program files (x86)/microchip/xc32/v1.31/bin/../lib/gcc/pic32mx/4.5.2/../../../../pic32mx/lib/size\libmchp_peripheral_32MX695F512L.a(I2CReceivedDataIsAvailable.o)
 .reginfo       0x00000000       0x18 c:/program files (x86)/microchip/xc32/v1.31/bin/../lib/gcc/pic32mx/4.5.2/../../../../pic32mx/lib/size\libmchp_peripheral_32MX695F512L.a(I2CReceivedDataIsAvailable.o)
 .pdr           0x00000000       0x20 c:/program files (x86)/microchip/xc32/v1.31/bin/../lib/gcc/pic32mx/4.5.2/../../../../pic32mx/lib/size\libmchp_peripheral_32MX695F512L.a(I2CReceivedDataIsAvailable.o)
 .text          0x00000000        0x0 c:/program files (x86)/microchip/xc32/v1.31/bin/../lib/gcc/pic32mx/4.5.2/../../../../pic32mx/lib/size\libmchp_peripheral_32MX695F512L.a(I2CReceiverEnable.o)
 .data          0x00000000        0x0 c:/program files (x86)/microchip/xc32/v1.31/bin/../lib/gcc/pic32mx/4.5.2/../../../../pic32mx/lib/size\libmchp_peripheral_32MX695F512L.a(I2CReceiverEnable.o)
 .bss           0x00000000        0x0 c:/program files (x86)/microchip/xc32/v1.31/bin/../lib/gcc/pic32mx/4.5.2/../../../../pic32mx/lib/size\libmchp_peripheral_32MX695F512L.a(I2CReceiverEnable.o)
 .reginfo       0x00000000       0x18 c:/program files (x86)/microchip/xc32/v1.31/bin/../lib/gcc/pic32mx/4.5.2/../../../../pic32mx/lib/size\libmchp_peripheral_32MX695F512L.a(I2CReceiverEnable.o)
 .pdr           0x00000000       0x20 c:/program files (x86)/microchip/xc32/v1.31/bin/../lib/gcc/pic32mx/4.5.2/../../../../pic32mx/lib/size\libmchp_peripheral_32MX695F512L.a(I2CReceiverEnable.o)
 .text          0x00000000        0x0 c:/program files (x86)/microchip/xc32/v1.31/bin/../lib/gcc/pic32mx/4.5.2/../../../../pic32mx/lib/size\libmchp_peripheral_32MX695F512L.a(I2CRepeatStart.o)
 .data          0x00000000        0x0 c:/program files (x86)/microchip/xc32/v1.31/bin/../lib/gcc/pic32mx/4.5.2/../../../../pic32mx/lib/size\libmchp_peripheral_32MX695F512L.a(I2CRepeatStart.o)
 .bss           0x00000000        0x0 c:/program files (x86)/microchip/xc32/v1.31/bin/../lib/gcc/pic32mx/4.5.2/../../../../pic32mx/lib/size\libmchp_peripheral_32MX695F512L.a(I2CRepeatStart.o)
 .reginfo       0x00000000       0x18 c:/program files (x86)/microchip/xc32/v1.31/bin/../lib/gcc/pic32mx/4.5.2/../../../../pic32mx/lib/size\libmchp_peripheral_32MX695F512L.a(I2CRepeatStart.o)
 .pdr           0x00000000       0x20 c:/program files (x86)/microchip/xc32/v1.31/bin/../lib/gcc/pic32mx/4.5.2/../../../../pic32mx/lib/size\libmchp_peripheral_32MX695F512L.a(I2CRepeatStart.o)
 .text          0x00000000        0x0 c:/program files (x86)/microchip/xc32/v1.31/bin/../lib/gcc/pic32mx/4.5.2/../../../../pic32mx/lib/size\libmchp_peripheral_32MX695F512L.a(I2CSendByte.o)
 .data          0x00000000        0x0 c:/program files (x86)/microchip/xc32/v1.31/bin/../lib/gcc/pic32mx/4.5.2/../../../../pic32mx/lib/size\libmchp_peripheral_32MX695F512L.a(I2CSendByte.o)
 .bss           0x00000000        0x0 c:/program files (x86)/microchip/xc32/v1.31/bin/../lib/gcc/pic32mx/4.5.2/../../../../pic32mx/lib/size\libmchp_peripheral_32MX695F512L.a(I2CSendByte.o)
 .reginfo       0x00000000       0x18 c:/program files (x86)/microchip/xc32/v1.31/bin/../lib/gcc/pic32mx/4.5.2/../../../../pic32mx/lib/size\libmchp_peripheral_32MX695F512L.a(I2CSendByte.o)
 .pdr           0x00000000       0x20 c:/program files (x86)/microchip/xc32/v1.31/bin/../lib/gcc/pic32mx/4.5.2/../../../../pic32mx/lib/size\libmchp_peripheral_32MX695F512L.a(I2CSendByte.o)
 .text          0x00000000        0x0 c:/program files (x86)/microchip/xc32/v1.31/bin/../lib/gcc/pic32mx/4.5.2/../../../../pic32mx/lib/size\libmchp_peripheral_32MX695F512L.a(I2CSetFrequency.o)
 .data          0x00000000        0x0 c:/program files (x86)/microchip/xc32/v1.31/bin/../lib/gcc/pic32mx/4.5.2/../../../../pic32mx/lib/size\libmchp_peripheral_32MX695F512L.a(I2CSetFrequency.o)
 .bss           0x00000000        0x0 c:/program files (x86)/microchip/xc32/v1.31/bin/../lib/gcc/pic32mx/4.5.2/../../../../pic32mx/lib/size\libmchp_peripheral_32MX695F512L.a(I2CSetFrequency.o)
 .reginfo       0x00000000       0x18 c:/program files (x86)/microchip/xc32/v1.31/bin/../lib/gcc/pic32mx/4.5.2/../../../../pic32mx/lib/size\libmchp_peripheral_32MX695F512L.a(I2CSetFrequency.o)
 .pdr           0x00000000       0x20 c:/program files (x86)/microchip/xc32/v1.31/bin/../lib/gcc/pic32mx/4.5.2/../../../../pic32mx/lib/size\libmchp_peripheral_32MX695F512L.a(I2CSetFrequency.o)
 .text          0x00000000        0x0 c:/program files (x86)/microchip/xc32/v1.31/bin/../lib/gcc/pic32mx/4.5.2/../../../../pic32mx/lib/size\libmchp_peripheral_32MX695F512L.a(I2CStart.o)
 .data          0x00000000        0x0 c:/program files (x86)/microchip/xc32/v1.31/bin/../lib/gcc/pic32mx/4.5.2/../../../../pic32mx/lib/size\libmchp_peripheral_32MX695F512L.a(I2CStart.o)
 .bss           0x00000000        0x0 c:/program files (x86)/microchip/xc32/v1.31/bin/../lib/gcc/pic32mx/4.5.2/../../../../pic32mx/lib/size\libmchp_peripheral_32MX695F512L.a(I2CStart.o)
 .reginfo       0x00000000       0x18 c:/program files (x86)/microchip/xc32/v1.31/bin/../lib/gcc/pic32mx/4.5.2/../../../../pic32mx/lib/size\libmchp_peripheral_32MX695F512L.a(I2CStart.o)
 .pdr           0x00000000       0x20 c:/program files (x86)/microchip/xc32/v1.31/bin/../lib/gcc/pic32mx/4.5.2/../../../../pic32mx/lib/size\libmchp_peripheral_32MX695F512L.a(I2CStart.o)
 .text          0x00000000        0x0 c:/program files (x86)/microchip/xc32/v1.31/bin/../lib/gcc/pic32mx/4.5.2/../../../../pic32mx/lib/size\libmchp_peripheral_32MX695F512L.a(I2CStop.o)
 .data          0x00000000        0x0 c:/program files (x86)/microchip/xc32/v1.31/bin/../lib/gcc/pic32mx/4.5.2/../../../../pic32mx/lib/size\libmchp_peripheral_32MX695F512L.a(I2CStop.o)
 .bss           0x00000000        0x0 c:/program files (x86)/microchip/xc32/v1.31/bin/../lib/gcc/pic32mx/4.5.2/../../../../pic32mx/lib/size\libmchp_peripheral_32MX695F512L.a(I2CStop.o)
 .reginfo       0x00000000       0x18 c:/program files (x86)/microchip/xc32/v1.31/bin/../lib/gcc/pic32mx/4.5.2/../../../../pic32mx/lib/size\libmchp_peripheral_32MX695F512L.a(I2CStop.o)
 .pdr           0x00000000       0x20 c:/program files (x86)/microchip/xc32/v1.31/bin/../lib/gcc/pic32mx/4.5.2/../../../../pic32mx/lib/size\libmchp_peripheral_32MX695F512L.a(I2CStop.o)
 .text          0x00000000        0x0 c:/program files (x86)/microchip/xc32/v1.31/bin/../lib/gcc/pic32mx/4.5.2/../../../../pic32mx/lib/size\libmchp_peripheral_32MX695F512L.a(I2CTransmissionHasCompleted.o)
 .data          0x00000000        0x0 c:/program files (x86)/microchip/xc32/v1.31/bin/../lib/gcc/pic32mx/4.5.2/../../../../pic32mx/lib/size\libmchp_peripheral_32MX695F512L.a(I2CTransmissionHasCompleted.o)
 .bss           0x00000000        0x0 c:/program files (x86)/microchip/xc32/v1.31/bin/../lib/gcc/pic32mx/4.5.2/../../../../pic32mx/lib/size\libmchp_peripheral_32MX695F512L.a(I2CTransmissionHasCompleted.o)
 .reginfo       0x00000000       0x18 c:/program files (x86)/microchip/xc32/v1.31/bin/../lib/gcc/pic32mx/4.5.2/../../../../pic32mx/lib/size\libmchp_peripheral_32MX695F512L.a(I2CTransmissionHasCompleted.o)
 .pdr           0x00000000       0x20 c:/program files (x86)/microchip/xc32/v1.31/bin/../lib/gcc/pic32mx/4.5.2/../../../../pic32mx/lib/size\libmchp_peripheral_32MX695F512L.a(I2CTransmissionHasCompleted.o)
 .text          0x00000000        0x0 c:/program files (x86)/microchip/xc32/v1.31/bin/../lib/gcc/pic32mx/4.5.2/../../../../pic32mx/lib/size\libmchp_peripheral_32MX695F512L.a(I2CTransmitterIsReady.o)
 .data          0x00000000        0x0 c:/program files (x86)/microchip/xc32/v1.31/bin/../lib/gcc/pic32mx/4.5.2/../../../../pic32mx/lib/size\libmchp_peripheral_32MX695F512L.a(I2CTransmitterIsReady.o)
 .bss           0x00000000        0x0 c:/program files (x86)/microchip/xc32/v1.31/bin/../lib/gcc/pic32mx/4.5.2/../../../../pic32mx/lib/size\libmchp_peripheral_32MX695F512L.a(I2CTransmitterIsReady.o)
 .reginfo       0x00000000       0x18 c:/program files (x86)/microchip/xc32/v1.31/bin/../lib/gcc/pic32mx/4.5.2/../../../../pic32mx/lib/size\libmchp_peripheral_32MX695F512L.a(I2CTransmitterIsReady.o)
 .pdr           0x00000000       0x20 c:/program files (x86)/microchip/xc32/v1.31/bin/../lib/gcc/pic32mx/4.5.2/../../../../pic32mx/lib/size\libmchp_peripheral_32MX695F512L.a(I2CTransmitterIsReady.o)
 .text          0x00000000        0x0 c:/program files (x86)/microchip/xc32/v1.31/bin/../lib/gcc/pic32mx/4.5.2/../../../../pic32mx/lib/size\libmchp_peripheral_32MX695F512L.a(int_enable_interrupts_lib.o)
 .data          0x00000000        0x0 c:/program files (x86)/microchip/xc32/v1.31/bin/../lib/gcc/pic32mx/4.5.2/../../../../pic32mx/lib/size\libmchp_peripheral_32MX695F512L.a(int_enable_interrupts_lib.o)
 .bss           0x00000000        0x0 c:/program files (x86)/microchip/xc32/v1.31/bin/../lib/gcc/pic32mx/4.5.2/../../../../pic32mx/lib/size\libmchp_peripheral_32MX695F512L.a(int_enable_interrupts_lib.o)
 .reginfo       0x00000000       0x18 c:/program files (x86)/microchip/xc32/v1.31/bin/../lib/gcc/pic32mx/4.5.2/../../../../pic32mx/lib/size\libmchp_peripheral_32MX695F512L.a(int_enable_interrupts_lib.o)
 .pdr           0x00000000       0x20 c:/program files (x86)/microchip/xc32/v1.31/bin/../lib/gcc/pic32mx/4.5.2/../../../../pic32mx/lib/size\libmchp_peripheral_32MX695F512L.a(int_enable_interrupts_lib.o)
 .text          0x00000000        0x0 c:/program files (x86)/microchip/xc32/v1.31/bin/../lib/gcc/pic32mx/4.5.2/../../../../pic32mx/lib/size\libmchp_peripheral_32MX695F512L.a(I2CPrivate.o)
 .data          0x00000000        0x0 c:/program files (x86)/microchip/xc32/v1.31/bin/../lib/gcc/pic32mx/4.5.2/../../../../pic32mx/lib/size\libmchp_peripheral_32MX695F512L.a(I2CPrivate.o)
 .bss           0x00000000        0x0 c:/program files (x86)/microchip/xc32/v1.31/bin/../lib/gcc/pic32mx/4.5.2/../../../../pic32mx/lib/size\libmchp_peripheral_32MX695F512L.a(I2CPrivate.o)
 .reginfo       0x00000000       0x18 c:/program files (x86)/microchip/xc32/v1.31/bin/../lib/gcc/pic32mx/4.5.2/../../../../pic32mx/lib/size\libmchp_peripheral_32MX695F512L.a(I2CPrivate.o)
 .pdr           0x00000000        0x0 c:/program files (x86)/microchip/xc32/v1.31/bin/../lib/gcc/pic32mx/4.5.2/../../../../pic32mx/lib/size\libmchp_peripheral_32MX695F512L.a(I2CPrivate.o)
 .data          0x00000000        0x0 c:/program files (x86)/microchip/xc32/v1.31/bin/../lib/gcc/pic32mx/4.5.2/size\libgcc.a(_divdi3.o)
 .bss           0x00000000        0x0 c:/program files (x86)/microchip/xc32/v1.31/bin/../lib/gcc/pic32mx/4.5.2/size\libgcc.a(_divdi3.o)
 .reginfo       0x00000000       0x18 c:/program files (x86)/microchip/xc32/v1.31/bin/../lib/gcc/pic32mx/4.5.2/size\libgcc.a(_divdi3.o)
 .data          0x00000000        0x0 c:/program files (x86)/microchip/xc32/v1.31/bin/../lib/gcc/pic32mx/4.5.2/size\libgcc.a(_udivdi3.o)
 .bss           0x00000000        0x0 c:/program files (x86)/microchip/xc32/v1.31/bin/../lib/gcc/pic32mx/4.5.2/size\libgcc.a(_udivdi3.o)
 .reginfo       0x00000000       0x18 c:/program files (x86)/microchip/xc32/v1.31/bin/../lib/gcc/pic32mx/4.5.2/size\libgcc.a(_udivdi3.o)
 .data          0x00000000        0x0 c:/program files (x86)/microchip/xc32/v1.31/bin/../lib/gcc/pic32mx/4.5.2/size\libgcc.a(floatunsisf.o)
 .bss           0x00000000        0x0 c:/program files (x86)/microchip/xc32/v1.31/bin/../lib/gcc/pic32mx/4.5.2/size\libgcc.a(floatunsisf.o)
 .reginfo       0x00000000       0x18 c:/program files (x86)/microchip/xc32/v1.31/bin/../lib/gcc/pic32mx/4.5.2/size\libgcc.a(floatunsisf.o)
 .data          0x00000000        0x0 c:/program files (x86)/microchip/xc32/v1.31/bin/../lib/gcc/pic32mx/4.5.2/../../../../pic32mx/lib/size\libpic32.a(memcmp.o)
 .bss           0x00000000        0x0 c:/program files (x86)/microchip/xc32/v1.31/bin/../lib/gcc/pic32mx/4.5.2/../../../../pic32mx/lib/size\libpic32.a(memcmp.o)
 .reginfo       0x00000000       0x18 c:/program files (x86)/microchip/xc32/v1.31/bin/../lib/gcc/pic32mx/4.5.2/../../../../pic32mx/lib/size\libpic32.a(memcmp.o)
 .data          0x00000000        0x0 c:/program files (x86)/microchip/xc32/v1.31/bin/../lib/gcc/pic32mx/4.5.2/../../../../pic32mx/lib/size\libpic32.a(memcpy.o)
 .bss           0x00000000        0x0 c:/program files (x86)/microchip/xc32/v1.31/bin/../lib/gcc/pic32mx/4.5.2/../../../../pic32mx/lib/size\libpic32.a(memcpy.o)
 .reginfo       0x00000000       0x18 c:/program files (x86)/microchip/xc32/v1.31/bin/../lib/gcc/pic32mx/4.5.2/../../../../pic32mx/lib/size\libpic32.a(memcpy.o)
 .data          0x00000000        0x0 c:/program files (x86)/microchip/xc32/v1.31/bin/../lib/gcc/pic32mx/4.5.2/../../../../pic32mx/lib/size\libpic32.a(memset.o)
 .bss           0x00000000        0x0 c:/program files (x86)/microchip/xc32/v1.31/bin/../lib/gcc/pic32mx/4.5.2/../../../../pic32mx/lib/size\libpic32.a(memset.o)
 .reginfo       0x00000000       0x18 c:/program files (x86)/microchip/xc32/v1.31/bin/../lib/gcc/pic32mx/4.5.2/../../../../pic32mx/lib/size\libpic32.a(memset.o)
 .data          0x00000000        0x0 c:/program files (x86)/microchip/xc32/v1.31/bin/../lib/gcc/pic32mx/4.5.2/../../../../pic32mx/lib/size\libpic32.a(strcmp.o)
 .bss           0x00000000        0x0 c:/program files (x86)/microchip/xc32/v1.31/bin/../lib/gcc/pic32mx/4.5.2/../../../../pic32mx/lib/size\libpic32.a(strcmp.o)
 .reginfo       0x00000000       0x18 c:/program files (x86)/microchip/xc32/v1.31/bin/../lib/gcc/pic32mx/4.5.2/../../../../pic32mx/lib/size\libpic32.a(strcmp.o)
 .data          0x00000000        0x0 c:/program files (x86)/microchip/xc32/v1.31/bin/../lib/gcc/pic32mx/4.5.2/../../../../pic32mx/lib/size\libpic32.a(strcpy.o)
 .bss           0x00000000        0x0 c:/program files (x86)/microchip/xc32/v1.31/bin/../lib/gcc/pic32mx/4.5.2/../../../../pic32mx/lib/size\libpic32.a(strcpy.o)
 .reginfo       0x00000000       0x18 c:/program files (x86)/microchip/xc32/v1.31/bin/../lib/gcc/pic32mx/4.5.2/../../../../pic32mx/lib/size\libpic32.a(strcpy.o)
 .data          0x00000000        0x0 c:/program files (x86)/microchip/xc32/v1.31/bin/../lib/gcc/pic32mx/4.5.2/../../../../pic32mx/lib/size\libpic32.a(strlen.o)
 .bss           0x00000000        0x0 c:/program files (x86)/microchip/xc32/v1.31/bin/../lib/gcc/pic32mx/4.5.2/../../../../pic32mx/lib/size\libpic32.a(strlen.o)
 .reginfo       0x00000000       0x18 c:/program files (x86)/microchip/xc32/v1.31/bin/../lib/gcc/pic32mx/4.5.2/../../../../pic32mx/lib/size\libpic32.a(strlen.o)
 .text          0x00000000        0x0 c:/program files (x86)/microchip/xc32/v1.31/bin/../lib/gcc/pic32mx/4.5.2/../../../../pic32mx/lib/size\libpic32.a(default-bootstrap-exception-handler.o)
 .data          0x00000000        0x0 c:/program files (x86)/microchip/xc32/v1.31/bin/../lib/gcc/pic32mx/4.5.2/../../../../pic32mx/lib/size\libpic32.a(default-bootstrap-exception-handler.o)
 .bss           0x00000000        0x0 c:/program files (x86)/microchip/xc32/v1.31/bin/../lib/gcc/pic32mx/4.5.2/../../../../pic32mx/lib/size\libpic32.a(default-bootstrap-exception-handler.o)
 .reginfo       0x00000000       0x18 c:/program files (x86)/microchip/xc32/v1.31/bin/../lib/gcc/pic32mx/4.5.2/../../../../pic32mx/lib/size\libpic32.a(default-bootstrap-exception-handler.o)
 .text          0x00000000        0x0 c:/program files (x86)/microchip/xc32/v1.31/bin/../lib/gcc/pic32mx/4.5.2/../../../../pic32mx/lib/size\libpic32.a(default-on-reset.o)
 .data          0x00000000        0x0 c:/program files (x86)/microchip/xc32/v1.31/bin/../lib/gcc/pic32mx/4.5.2/../../../../pic32mx/lib/size\libpic32.a(default-on-reset.o)
 .bss           0x00000000        0x0 c:/program files (x86)/microchip/xc32/v1.31/bin/../lib/gcc/pic32mx/4.5.2/../../../../pic32mx/lib/size\libpic32.a(default-on-reset.o)
 .reginfo       0x00000000       0x18 c:/program files (x86)/microchip/xc32/v1.31/bin/../lib/gcc/pic32mx/4.5.2/../../../../pic32mx/lib/size\libpic32.a(default-on-reset.o)
 .text          0x00000000        0x0 c:/program files (x86)/microchip/xc32/v1.31/bin/../lib/gcc/pic32mx/4.5.2/../../../../pic32mx/lib/size\libpic32.a(default-on-bootstrap.o)
 .data          0x00000000        0x0 c:/program files (x86)/microchip/xc32/v1.31/bin/../lib/gcc/pic32mx/4.5.2/../../../../pic32mx/lib/size\libpic32.a(default-on-bootstrap.o)
 .bss           0x00000000        0x0 c:/program files (x86)/microchip/xc32/v1.31/bin/../lib/gcc/pic32mx/4.5.2/../../../../pic32mx/lib/size\libpic32.a(default-on-bootstrap.o)
 .reginfo       0x00000000       0x18 c:/program files (x86)/microchip/xc32/v1.31/bin/../lib/gcc/pic32mx/4.5.2/../../../../pic32mx/lib/size\libpic32.a(default-on-bootstrap.o)
 .data          0x00000000        0x0 c:/program files (x86)/microchip/xc32/v1.31/bin/../lib/gcc/pic32mx/4.5.2/../../../../pic32mx/lib/size\libpic32.a(default-nmi-handler.o)
 .bss           0x00000000        0x0 c:/program files (x86)/microchip/xc32/v1.31/bin/../lib/gcc/pic32mx/4.5.2/../../../../pic32mx/lib/size\libpic32.a(default-nmi-handler.o)
 .reginfo       0x00000000       0x18 c:/program files (x86)/microchip/xc32/v1.31/bin/../lib/gcc/pic32mx/4.5.2/../../../../pic32mx/lib/size\libpic32.a(default-nmi-handler.o)
 .data          0x00000000        0x0 c:/program files (x86)/microchip/xc32/v1.31/bin/../lib/gcc/pic32mx/4.5.2/../../../../pic32mx/lib/size\libpic32.a(pic32_software_reset.o)
 .bss           0x00000000        0x0 c:/program files (x86)/microchip/xc32/v1.31/bin/../lib/gcc/pic32mx/4.5.2/../../../../pic32mx/lib/size\libpic32.a(pic32_software_reset.o)
 .reginfo       0x00000000       0x18 c:/program files (x86)/microchip/xc32/v1.31/bin/../lib/gcc/pic32mx/4.5.2/../../../../pic32mx/lib/size\libpic32.a(pic32_software_reset.o)
 .text          0x00000000        0x0 c:/program files (x86)/microchip/xc32/v1.31/bin/../lib/gcc/pic32mx/4.5.2/../../../../pic32mx/lib/size\libpic32.a(general-exception.o)
 .data          0x00000000        0x0 c:/program files (x86)/microchip/xc32/v1.31/bin/../lib/gcc/pic32mx/4.5.2/../../../../pic32mx/lib/size\libpic32.a(general-exception.o)
 .bss           0x00000000        0x0 c:/program files (x86)/microchip/xc32/v1.31/bin/../lib/gcc/pic32mx/4.5.2/../../../../pic32mx/lib/size\libpic32.a(general-exception.o)
 .reginfo       0x00000000       0x18 c:/program files (x86)/microchip/xc32/v1.31/bin/../lib/gcc/pic32mx/4.5.2/../../../../pic32mx/lib/size\libpic32.a(general-exception.o)
 .text          0x00000000        0x0 c:/program files (x86)/microchip/xc32/v1.31/bin/../lib/gcc/pic32mx/4.5.2/../../../../pic32mx/lib/size\libm.a(w_sqrtf.o)
 .data          0x00000000        0x0 c:/program files (x86)/microchip/xc32/v1.31/bin/../lib/gcc/pic32mx/4.5.2/../../../../pic32mx/lib/size\libm.a(w_sqrtf.o)
 .bss           0x00000000        0x0 c:/program files (x86)/microchip/xc32/v1.31/bin/../lib/gcc/pic32mx/4.5.2/../../../../pic32mx/lib/size\libm.a(w_sqrtf.o)
 .reginfo       0x00000000       0x18 c:/program files (x86)/microchip/xc32/v1.31/bin/../lib/gcc/pic32mx/4.5.2/../../../../pic32mx/lib/size\libm.a(w_sqrtf.o)
 .data          0x00000000        0x0 c:/program files (x86)/microchip/xc32/v1.31/bin/../lib/gcc/pic32mx/4.5.2/../../../../pic32mx/lib/size\libm.a(fp32.o)
 .bss           0x00000000        0x0 c:/program files (x86)/microchip/xc32/v1.31/bin/../lib/gcc/pic32mx/4.5.2/../../../../pic32mx/lib/size\libm.a(fp32.o)
 .reginfo       0x00000000       0x18 c:/program files (x86)/microchip/xc32/v1.31/bin/../lib/gcc/pic32mx/4.5.2/../../../../pic32mx/lib/size\libm.a(fp32.o)
 .text          0x00000000        0x0 c:/program files (x86)/microchip/xc32/v1.31/bin/../lib/gcc/pic32mx/4.5.2/../../../../pic32mx/lib/size\libm.a(s_lib_ver.o)
 .data          0x00000000        0x0 c:/program files (x86)/microchip/xc32/v1.31/bin/../lib/gcc/pic32mx/4.5.2/../../../../pic32mx/lib/size\libm.a(s_lib_ver.o)
 .bss           0x00000000        0x0 c:/program files (x86)/microchip/xc32/v1.31/bin/../lib/gcc/pic32mx/4.5.2/../../../../pic32mx/lib/size\libm.a(s_lib_ver.o)
 .reginfo       0x00000000       0x18 c:/program files (x86)/microchip/xc32/v1.31/bin/../lib/gcc/pic32mx/4.5.2/../../../../pic32mx/lib/size\libm.a(s_lib_ver.o)
 .data          0x00000000        0x0 c:/program files (x86)/microchip/xc32/v1.31/bin/../lib/gcc/pic32mx/4.5.2/../../../../pic32mx/lib/size\libm.a(fpsqrt32.o)
 .bss           0x00000000        0x0 c:/program files (x86)/microchip/xc32/v1.31/bin/../lib/gcc/pic32mx/4.5.2/../../../../pic32mx/lib/size\libm.a(fpsqrt32.o)
 .reginfo       0x00000000       0x18 c:/program files (x86)/microchip/xc32/v1.31/bin/../lib/gcc/pic32mx/4.5.2/../../../../pic32mx/lib/size\libm.a(fpsqrt32.o)
 .text          0x00000000        0x0 c:/program files (x86)/microchip/xc32/v1.31/bin/../lib/gcc/pic32mx/4.5.2/../../../../pic32mx/lib/size\libpic32.a(errno.o)
 .data          0x00000000        0x0 c:/program files (x86)/microchip/xc32/v1.31/bin/../lib/gcc/pic32mx/4.5.2/../../../../pic32mx/lib/size\libpic32.a(errno.o)
 .bss           0x00000000        0x0 c:/program files (x86)/microchip/xc32/v1.31/bin/../lib/gcc/pic32mx/4.5.2/../../../../pic32mx/lib/size\libpic32.a(errno.o)
 .reginfo       0x00000000       0x18 c:/program files (x86)/microchip/xc32/v1.31/bin/../lib/gcc/pic32mx/4.5.2/../../../../pic32mx/lib/size\libpic32.a(errno.o)
 .text          0x00000000        0x0 c:/program files (x86)/microchip/xc32/v1.31/bin/../lib/gcc/pic32mx/4.5.2/../../../../pic32mx/lib/size\libc.a(atoi.o)
 .data          0x00000000        0x0 c:/program files (x86)/microchip/xc32/v1.31/bin/../lib/gcc/pic32mx/4.5.2/../../../../pic32mx/lib/size\libc.a(atoi.o)
 .bss           0x00000000        0x0 c:/program files (x86)/microchip/xc32/v1.31/bin/../lib/gcc/pic32mx/4.5.2/../../../../pic32mx/lib/size\libc.a(atoi.o)
 .reginfo       0x00000000       0x18 c:/program files (x86)/microchip/xc32/v1.31/bin/../lib/gcc/pic32mx/4.5.2/../../../../pic32mx/lib/size\libc.a(atoi.o)
 .text          0x00000000        0x0 c:/program files (x86)/microchip/xc32/v1.31/bin/../lib/gcc/pic32mx/4.5.2/../../../../pic32mx/lib/size\libc.a(atol.o)
 .data          0x00000000        0x0 c:/program files (x86)/microchip/xc32/v1.31/bin/../lib/gcc/pic32mx/4.5.2/../../../../pic32mx/lib/size\libc.a(atol.o)
 .bss           0x00000000        0x0 c:/program files (x86)/microchip/xc32/v1.31/bin/../lib/gcc/pic32mx/4.5.2/../../../../pic32mx/lib/size\libc.a(atol.o)
 .reginfo       0x00000000       0x18 c:/program files (x86)/microchip/xc32/v1.31/bin/../lib/gcc/pic32mx/4.5.2/../../../../pic32mx/lib/size\libc.a(atol.o)
 .text          0x00000000        0x0 c:/program files (x86)/microchip/xc32/v1.31/bin/../lib/gcc/pic32mx/4.5.2/../../../../pic32mx/lib/size\libc.a(ctype.o)
 .data          0x00000000        0x0 c:/program files (x86)/microchip/xc32/v1.31/bin/../lib/gcc/pic32mx/4.5.2/../../../../pic32mx/lib/size\libc.a(ctype.o)
 .bss           0x00000000        0x0 c:/program files (x86)/microchip/xc32/v1.31/bin/../lib/gcc/pic32mx/4.5.2/../../../../pic32mx/lib/size\libc.a(ctype.o)
 .reginfo       0x00000000       0x18 c:/program files (x86)/microchip/xc32/v1.31/bin/../lib/gcc/pic32mx/4.5.2/../../../../pic32mx/lib/size\libc.a(ctype.o)
 .text          0x00000000        0x0 c:/program files (x86)/microchip/xc32/v1.31/bin/../lib/gcc/pic32mx/4.5.2/../../../../pic32mx/lib/size\libc.a(ctypef.o)
 .data          0x00000000        0x0 c:/program files (x86)/microchip/xc32/v1.31/bin/../lib/gcc/pic32mx/4.5.2/../../../../pic32mx/lib/size\libc.a(ctypef.o)
 .bss           0x00000000        0x0 c:/program files (x86)/microchip/xc32/v1.31/bin/../lib/gcc/pic32mx/4.5.2/../../../../pic32mx/lib/size\libc.a(ctypef.o)
 .reginfo       0x00000000       0x18 c:/program files (x86)/microchip/xc32/v1.31/bin/../lib/gcc/pic32mx/4.5.2/../../../../pic32mx/lib/size\libc.a(ctypef.o)
 .text.tolower  0x00000000       0x24 c:/program files (x86)/microchip/xc32/v1.31/bin/../lib/gcc/pic32mx/4.5.2/../../../../pic32mx/lib/size\libc.a(ctypef.o)
 .text.isalnum  0x00000000       0x18 c:/program files (x86)/microchip/xc32/v1.31/bin/../lib/gcc/pic32mx/4.5.2/../../../../pic32mx/lib/size\libc.a(ctypef.o)
 .text.isalpha  0x00000000       0x18 c:/program files (x86)/microchip/xc32/v1.31/bin/../lib/gcc/pic32mx/4.5.2/../../../../pic32mx/lib/size\libc.a(ctypef.o)
 .text.isascii  0x00000000        0x8 c:/program files (x86)/microchip/xc32/v1.31/bin/../lib/gcc/pic32mx/4.5.2/../../../../pic32mx/lib/size\libc.a(ctypef.o)
 .text.iscntrl  0x00000000       0x18 c:/program files (x86)/microchip/xc32/v1.31/bin/../lib/gcc/pic32mx/4.5.2/../../../../pic32mx/lib/size\libc.a(ctypef.o)
 .text.isdigit  0x00000000       0x18 c:/program files (x86)/microchip/xc32/v1.31/bin/../lib/gcc/pic32mx/4.5.2/../../../../pic32mx/lib/size\libc.a(ctypef.o)
 .text.isgraph  0x00000000       0x18 c:/program files (x86)/microchip/xc32/v1.31/bin/../lib/gcc/pic32mx/4.5.2/../../../../pic32mx/lib/size\libc.a(ctypef.o)
 .text.islower  0x00000000       0x18 c:/program files (x86)/microchip/xc32/v1.31/bin/../lib/gcc/pic32mx/4.5.2/../../../../pic32mx/lib/size\libc.a(ctypef.o)
 .text.isprint  0x00000000       0x18 c:/program files (x86)/microchip/xc32/v1.31/bin/../lib/gcc/pic32mx/4.5.2/../../../../pic32mx/lib/size\libc.a(ctypef.o)
 .text.ispunct  0x00000000       0x18 c:/program files (x86)/microchip/xc32/v1.31/bin/../lib/gcc/pic32mx/4.5.2/../../../../pic32mx/lib/size\libc.a(ctypef.o)
 .text.isspace  0x00000000       0x18 c:/program files (x86)/microchip/xc32/v1.31/bin/../lib/gcc/pic32mx/4.5.2/../../../../pic32mx/lib/size\libc.a(ctypef.o)
 .text.isupper  0x00000000       0x18 c:/program files (x86)/microchip/xc32/v1.31/bin/../lib/gcc/pic32mx/4.5.2/../../../../pic32mx/lib/size\libc.a(ctypef.o)
 .text.isxdigit
                0x00000000       0x18 c:/program files (x86)/microchip/xc32/v1.31/bin/../lib/gcc/pic32mx/4.5.2/../../../../pic32mx/lib/size\libc.a(ctypef.o)
 .text.toascii  0x00000000        0x8 c:/program files (x86)/microchip/xc32/v1.31/bin/../lib/gcc/pic32mx/4.5.2/../../../../pic32mx/lib/size\libc.a(ctypef.o)
 .text._tolower
                0x00000000        0x8 c:/program files (x86)/microchip/xc32/v1.31/bin/../lib/gcc/pic32mx/4.5.2/../../../../pic32mx/lib/size\libc.a(ctypef.o)
 .text._toupper
                0x00000000        0x8 c:/program files (x86)/microchip/xc32/v1.31/bin/../lib/gcc/pic32mx/4.5.2/../../../../pic32mx/lib/size\libc.a(ctypef.o)
 .text          0x00000000        0x0 c:/program files (x86)/microchip/xc32/v1.31/bin/../lib/gcc/pic32mx/4.5.2/../../../../pic32mx/lib/size\libc.a(ltoa.o)
 .data          0x00000000        0x0 c:/program files (x86)/microchip/xc32/v1.31/bin/../lib/gcc/pic32mx/4.5.2/../../../../pic32mx/lib/size\libc.a(ltoa.o)
 .bss           0x00000000        0x0 c:/program files (x86)/microchip/xc32/v1.31/bin/../lib/gcc/pic32mx/4.5.2/../../../../pic32mx/lib/size\libc.a(ltoa.o)
 .reginfo       0x00000000       0x18 c:/program files (x86)/microchip/xc32/v1.31/bin/../lib/gcc/pic32mx/4.5.2/../../../../pic32mx/lib/size\libc.a(ltoa.o)
 .text          0x00000000        0x0 c:/program files (x86)/microchip/xc32/v1.31/bin/../lib/gcc/pic32mx/4.5.2/../../../../pic32mx/lib/size\libc.a(mktime.o)
 .data          0x00000000        0x0 c:/program files (x86)/microchip/xc32/v1.31/bin/../lib/gcc/pic32mx/4.5.2/../../../../pic32mx/lib/size\libc.a(mktime.o)
 .bss           0x00000000        0x0 c:/program files (x86)/microchip/xc32/v1.31/bin/../lib/gcc/pic32mx/4.5.2/../../../../pic32mx/lib/size\libc.a(mktime.o)
 .reginfo       0x00000000       0x18 c:/program files (x86)/microchip/xc32/v1.31/bin/../lib/gcc/pic32mx/4.5.2/../../../../pic32mx/lib/size\libc.a(mktime.o)
 .text          0x00000000        0x0 c:/program files (x86)/microchip/xc32/v1.31/bin/../lib/gcc/pic32mx/4.5.2/../../../../pic32mx/lib/size\libc.a(strcat.o)
 .data          0x00000000        0x0 c:/program files (x86)/microchip/xc32/v1.31/bin/../lib/gcc/pic32mx/4.5.2/../../../../pic32mx/lib/size\libc.a(strcat.o)
 .bss           0x00000000        0x0 c:/program files (x86)/microchip/xc32/v1.31/bin/../lib/gcc/pic32mx/4.5.2/../../../../pic32mx/lib/size\libc.a(strcat.o)
 .reginfo       0x00000000       0x18 c:/program files (x86)/microchip/xc32/v1.31/bin/../lib/gcc/pic32mx/4.5.2/../../../../pic32mx/lib/size\libc.a(strcat.o)
 .text          0x00000000        0x0 c:/program files (x86)/microchip/xc32/v1.31/bin/../lib/gcc/pic32mx/4.5.2/../../../../pic32mx/lib/size\libc.a(strchr.o)
 .data          0x00000000        0x0 c:/program files (x86)/microchip/xc32/v1.31/bin/../lib/gcc/pic32mx/4.5.2/../../../../pic32mx/lib/size\libc.a(strchr.o)
 .bss           0x00000000        0x0 c:/program files (x86)/microchip/xc32/v1.31/bin/../lib/gcc/pic32mx/4.5.2/../../../../pic32mx/lib/size\libc.a(strchr.o)
 .reginfo       0x00000000       0x18 c:/program files (x86)/microchip/xc32/v1.31/bin/../lib/gcc/pic32mx/4.5.2/../../../../pic32mx/lib/size\libc.a(strchr.o)
 .text          0x00000000        0x0 c:/program files (x86)/microchip/xc32/v1.31/bin/../lib/gcc/pic32mx/4.5.2/../../../../pic32mx/lib/size\libc.a(strncmp.o)
 .data          0x00000000        0x0 c:/program files (x86)/microchip/xc32/v1.31/bin/../lib/gcc/pic32mx/4.5.2/../../../../pic32mx/lib/size\libc.a(strncmp.o)
 .bss           0x00000000        0x0 c:/program files (x86)/microchip/xc32/v1.31/bin/../lib/gcc/pic32mx/4.5.2/../../../../pic32mx/lib/size\libc.a(strncmp.o)
 .reginfo       0x00000000       0x18 c:/program files (x86)/microchip/xc32/v1.31/bin/../lib/gcc/pic32mx/4.5.2/../../../../pic32mx/lib/size\libc.a(strncmp.o)
 .text          0x00000000        0x0 c:/program files (x86)/microchip/xc32/v1.31/bin/../lib/gcc/pic32mx/4.5.2/../../../../pic32mx/lib/size\libc.a(strncpy.o)
 .data          0x00000000        0x0 c:/program files (x86)/microchip/xc32/v1.31/bin/../lib/gcc/pic32mx/4.5.2/../../../../pic32mx/lib/size\libc.a(strncpy.o)
 .bss           0x00000000        0x0 c:/program files (x86)/microchip/xc32/v1.31/bin/../lib/gcc/pic32mx/4.5.2/../../../../pic32mx/lib/size\libc.a(strncpy.o)
 .reginfo       0x00000000       0x18 c:/program files (x86)/microchip/xc32/v1.31/bin/../lib/gcc/pic32mx/4.5.2/../../../../pic32mx/lib/size\libc.a(strncpy.o)
 .text          0x00000000        0x0 c:/program files (x86)/microchip/xc32/v1.31/bin/../lib/gcc/pic32mx/4.5.2/../../../../pic32mx/lib/size\libc.a(strstr.o)
 .data          0x00000000        0x0 c:/program files (x86)/microchip/xc32/v1.31/bin/../lib/gcc/pic32mx/4.5.2/../../../../pic32mx/lib/size\libc.a(strstr.o)
 .bss           0x00000000        0x0 c:/program files (x86)/microchip/xc32/v1.31/bin/../lib/gcc/pic32mx/4.5.2/../../../../pic32mx/lib/size\libc.a(strstr.o)
 .reginfo       0x00000000       0x18 c:/program files (x86)/microchip/xc32/v1.31/bin/../lib/gcc/pic32mx/4.5.2/../../../../pic32mx/lib/size\libc.a(strstr.o)
 .text          0x00000000        0x0 c:/program files (x86)/microchip/xc32/v1.31/bin/../lib/gcc/pic32mx/4.5.2/../../../../pic32mx/lib/size\libc.a(sprintf_cdnopsuxX.eo)
 .data          0x00000000        0x0 c:/program files (x86)/microchip/xc32/v1.31/bin/../lib/gcc/pic32mx/4.5.2/../../../../pic32mx/lib/size\libc.a(sprintf_cdnopsuxX.eo)
 .bss           0x00000000        0x0 c:/program files (x86)/microchip/xc32/v1.31/bin/../lib/gcc/pic32mx/4.5.2/../../../../pic32mx/lib/size\libc.a(sprintf_cdnopsuxX.eo)
 .reginfo       0x00000000       0x18 c:/program files (x86)/microchip/xc32/v1.31/bin/../lib/gcc/pic32mx/4.5.2/../../../../pic32mx/lib/size\libc.a(sprintf_cdnopsuxX.eo)
 .text          0x00000000        0x0 c:/program files (x86)/microchip/xc32/v1.31/bin/../lib/gcc/pic32mx/4.5.2/../../../../pic32mx/lib/size\libc.a(doprnt_cdnopsuxX.eo)
 .data          0x00000000        0x0 c:/program files (x86)/microchip/xc32/v1.31/bin/../lib/gcc/pic32mx/4.5.2/../../../../pic32mx/lib/size\libc.a(doprnt_cdnopsuxX.eo)
 .bss           0x00000000        0x0 c:/program files (x86)/microchip/xc32/v1.31/bin/../lib/gcc/pic32mx/4.5.2/../../../../pic32mx/lib/size\libc.a(doprnt_cdnopsuxX.eo)
 .reginfo       0x00000000       0x18 c:/program files (x86)/microchip/xc32/v1.31/bin/../lib/gcc/pic32mx/4.5.2/../../../../pic32mx/lib/size\libc.a(doprnt_cdnopsuxX.eo)
 .text          0x00000000        0x0 c:/program files (x86)/microchip/xc32/v1.31/bin/../lib/gcc/pic32mx/4.5.2/../../../../pic32mx/lib/size\libc.a(_fputc_simple.o)
 .data          0x00000000        0x0 c:/program files (x86)/microchip/xc32/v1.31/bin/../lib/gcc/pic32mx/4.5.2/../../../../pic32mx/lib/size\libc.a(_fputc_simple.o)
 .bss           0x00000000        0x0 c:/program files (x86)/microchip/xc32/v1.31/bin/../lib/gcc/pic32mx/4.5.2/../../../../pic32mx/lib/size\libc.a(_fputc_simple.o)
 .reginfo       0x00000000       0x18 c:/program files (x86)/microchip/xc32/v1.31/bin/../lib/gcc/pic32mx/4.5.2/../../../../pic32mx/lib/size\libc.a(_fputc_simple.o)
 .text          0x00000000        0x0 c:/program files (x86)/microchip/xc32/v1.31/bin/../lib/gcc/pic32mx/4.5.2/../../../../pic32mx/lib/size\libc.a(_iob.o)
 .reginfo       0x00000000       0x18 c:/program files (x86)/microchip/xc32/v1.31/bin/../lib/gcc/pic32mx/4.5.2/../../../../pic32mx/lib/size\libc.a(_iob.o)
 .text          0x00000000        0x0 c:/program files (x86)/microchip/xc32/v1.31/bin/../lib/gcc/pic32mx/4.5.2/../../../../pic32mx/lib/size\libc.a(_flsbuf_simple.o)
 .data          0x00000000        0x0 c:/program files (x86)/microchip/xc32/v1.31/bin/../lib/gcc/pic32mx/4.5.2/../../../../pic32mx/lib/size\libc.a(_flsbuf_simple.o)
 .bss           0x00000000        0x0 c:/program files (x86)/microchip/xc32/v1.31/bin/../lib/gcc/pic32mx/4.5.2/../../../../pic32mx/lib/size\libc.a(_flsbuf_simple.o)
 .reginfo       0x00000000       0x18 c:/program files (x86)/microchip/xc32/v1.31/bin/../lib/gcc/pic32mx/4.5.2/../../../../pic32mx/lib/size\libc.a(_flsbuf_simple.o)
 .text          0x00000000        0x0 c:/program files (x86)/microchip/xc32/v1.31/bin/../lib/gcc/pic32mx/4.5.2/../../../../pic32mx/lib/size\libpic32.a(write.o)
 .data          0x00000000        0x0 c:/program files (x86)/microchip/xc32/v1.31/bin/../lib/gcc/pic32mx/4.5.2/../../../../pic32mx/lib/size\libpic32.a(write.o)
 .bss           0x00000000        0x0 c:/program files (x86)/microchip/xc32/v1.31/bin/../lib/gcc/pic32mx/4.5.2/../../../../pic32mx/lib/size\libpic32.a(write.o)
 .reginfo       0x00000000       0x18 c:/program files (x86)/microchip/xc32/v1.31/bin/../lib/gcc/pic32mx/4.5.2/../../../../pic32mx/lib/size\libpic32.a(write.o)
 .text          0x00000000        0x0 c:/program files (x86)/microchip/xc32/v1.31/bin/../lib/gcc/pic32mx/4.5.2/../../../../pic32mx/lib/size\libpic32.a(_mon_putc.o)
 .data          0x00000000        0x0 c:/program files (x86)/microchip/xc32/v1.31/bin/../lib/gcc/pic32mx/4.5.2/../../../../pic32mx/lib/size\libpic32.a(_mon_putc.o)
 .bss           0x00000000        0x0 c:/program files (x86)/microchip/xc32/v1.31/bin/../lib/gcc/pic32mx/4.5.2/../../../../pic32mx/lib/size\libpic32.a(_mon_putc.o)
 .reginfo       0x00000000       0x18 c:/program files (x86)/microchip/xc32/v1.31/bin/../lib/gcc/pic32mx/4.5.2/../../../../pic32mx/lib/size\libpic32.a(_mon_putc.o)
 .text          0x00000000        0x0 c:/program files (x86)/microchip/xc32/v1.31/bin/../lib/gcc/pic32mx/4.5.2/../../../../pic32mx/lib/size\libpic32.a(xc32_uart.o)
 .data          0x00000000        0x0 c:/program files (x86)/microchip/xc32/v1.31/bin/../lib/gcc/pic32mx/4.5.2/../../../../pic32mx/lib/size\libpic32.a(xc32_uart.o)
 .bss           0x00000000        0x0 c:/program files (x86)/microchip/xc32/v1.31/bin/../lib/gcc/pic32mx/4.5.2/../../../../pic32mx/lib/size\libpic32.a(xc32_uart.o)
 .reginfo       0x00000000       0x18 c:/program files (x86)/microchip/xc32/v1.31/bin/../lib/gcc/pic32mx/4.5.2/../../../../pic32mx/lib/size\libpic32.a(xc32_uart.o)
 .data          0x00000000        0x0 c:/program files (x86)/microchip/xc32/v1.31/bin/../lib/gcc/pic32mx/4.5.2/size\libgcc.a(_lshrdi3.o)
 .bss           0x00000000        0x0 c:/program files (x86)/microchip/xc32/v1.31/bin/../lib/gcc/pic32mx/4.5.2/size\libgcc.a(_lshrdi3.o)
 .reginfo       0x00000000       0x18 c:/program files (x86)/microchip/xc32/v1.31/bin/../lib/gcc/pic32mx/4.5.2/size\libgcc.a(_lshrdi3.o)
 .data          0x00000000        0x0 c:/program files (x86)/microchip/xc32/v1.31/bin/../lib/gcc/pic32mx/4.5.2/size\libgcc.a(_umoddi3.o)
 .bss           0x00000000        0x0 c:/program files (x86)/microchip/xc32/v1.31/bin/../lib/gcc/pic32mx/4.5.2/size\libgcc.a(_umoddi3.o)
 .reginfo       0x00000000       0x18 c:/program files (x86)/microchip/xc32/v1.31/bin/../lib/gcc/pic32mx/4.5.2/size\libgcc.a(_umoddi3.o)
 .text          0x00000000        0x0 c:/program files (x86)/microchip/xc32/v1.31/bin/../lib/gcc/pic32mx/4.5.2/../../../../pic32mx/lib/size\debug-exception-return.o
 .data          0x00000000        0x0 c:/program files (x86)/microchip/xc32/v1.31/bin/../lib/gcc/pic32mx/4.5.2/../../../../pic32mx/lib/size\debug-exception-return.o
 .bss           0x00000000        0x0 c:/program files (x86)/microchip/xc32/v1.31/bin/../lib/gcc/pic32mx/4.5.2/../../../../pic32mx/lib/size\debug-exception-return.o
 .reginfo       0x00000000       0x18 c:/program files (x86)/microchip/xc32/v1.31/bin/../lib/gcc/pic32mx/4.5.2/../../../../pic32mx/lib/size\debug-exception-return.o

Memory Configuration

Name             Origin             Length             Attributes
exception_mem    0x9d006000         0x00001000
kseg0_boot_mem   0x9d007000         0x00000970
kseg1_boot_mem   0x9d007970         0x00000490
kseg0_program_mem 0x9d007e00         0x00078200         xr
debug_exec_mem   0xbfc02000         0x00000ff0
config3          0xbfc02ff0         0x00000004
config2          0xbfc02ff4         0x00000004
config1          0xbfc02ff8         0x00000004
config0          0xbfc02ffc         0x00000004
kseg1_data_mem   0xa0000000         0x00020000         w !x
sfrs             0xbf800000         0x00100000
configsfrs       0xbfc02ff0         0x00000010
*default*        0x00000000         0xffffffff

Linker script and memory map

LOAD c:/program files (x86)/microchip/xc32/v1.31/bin/../lib/gcc/pic32mx/4.5.2/../../../../pic32mx/lib/./proc/32MX695F512L/crt0_mips32r2.o
LOAD build/default_-_avec_Bootloader/production/_ext/1472/HTTP_Teleinfo.o
LOAD build/default_-_avec_Bootloader/production/_ext/1472/HTTP_Reseau.o
LOAD build/default_-_avec_Bootloader/production/_ext/1472/HTTP_Mynetmemo.o
LOAD build/default_-_avec_Bootloader/production/_ext/1472/HTTP_Password.o
LOAD build/default_-_avec_Bootloader/production/_ext/1472/HTTP_log.o
LOAD build/default_-_avec_Bootloader/production/_ext/1472/HTTP_cmd.o
LOAD build/default_-_avec_Bootloader/production/_ext/1472/HTTP_Parametres.o
LOAD build/default_-_avec_Bootloader/production/_ext/1472/HTTP_Donnees.o
LOAD build/default_-_avec_Bootloader/production/_ext/1472/HTTP_Index.o
LOAD build/default_-_avec_Bootloader/production/_ext/1472/HTTP_ADTEK.o
LOAD build/default_-_avec_Bootloader/production/_ext/1295770447/Announce.o
LOAD build/default_-_avec_Bootloader/production/_ext/1295770447/ARP.o
LOAD build/default_-_avec_Bootloader/production/_ext/1295770447/Delay.o
LOAD build/default_-_avec_Bootloader/production/_ext/1295770447/DHCP.o
LOAD build/default_-_avec_Bootloader/production/_ext/1295770447/DHCPs.o
LOAD build/default_-_avec_Bootloader/production/_ext/1295770447/DNS.o
LOAD build/default_-_avec_Bootloader/production/_ext/1295770447/DynDNS.o
LOAD build/default_-_avec_Bootloader/production/_ext/1295770447/FTP.o
LOAD build/default_-_avec_Bootloader/production/_ext/1295770447/Hashes.o
LOAD build/default_-_avec_Bootloader/production/_ext/1295770447/Helpers.o
LOAD build/default_-_avec_Bootloader/production/_ext/1295770447/HTTP2.o
LOAD build/default_-_avec_Bootloader/production/_ext/1295770447/ICMP.o
LOAD build/default_-_avec_Bootloader/production/_ext/1295770447/IP.o
LOAD build/default_-_avec_Bootloader/production/_ext/1295770447/MPFS2.o
LOAD build/default_-_avec_Bootloader/production/_ext/1295770447/NBNS.o
LOAD build/default_-_avec_Bootloader/production/_ext/1295770447/SMTP.o
LOAD build/default_-_avec_Bootloader/production/_ext/1295770447/SNMP.o
LOAD build/default_-_avec_Bootloader/production/_ext/1295770447/SNTP.o
LOAD build/default_-_avec_Bootloader/production/_ext/1295770447/SPIEEPROM.o
LOAD build/default_-_avec_Bootloader/production/_ext/1295770447/SPIFlash.o
LOAD build/default_-_avec_Bootloader/production/_ext/1295770447/SPIRAM.o
LOAD build/default_-_avec_Bootloader/production/_ext/1295770447/StackTsk.o
LOAD build/default_-_avec_Bootloader/production/_ext/1295770447/TCP.o
LOAD build/default_-_avec_Bootloader/production/_ext/1295770447/Telnet.o
LOAD build/default_-_avec_Bootloader/production/_ext/1295770447/TFTPc.o
LOAD build/default_-_avec_Bootloader/production/_ext/1295770447/Tick.o
LOAD build/default_-_avec_Bootloader/production/_ext/1295770447/UART.o
LOAD build/default_-_avec_Bootloader/production/_ext/1295770447/UDP.o
LOAD build/default_-_avec_Bootloader/production/_ext/1472/MPFSImg2.o
LOAD build/default_-_avec_Bootloader/production/_ext/1295770447/Random.o
LOAD build/default_-_avec_Bootloader/production/_ext/1295770447/RSA.o
LOAD build/default_-_avec_Bootloader/production/_ext/1295770447/SSL.o
LOAD build/default_-_avec_Bootloader/production/_ext/1295770447/ARCFOUR.o
LOAD build/default_-_avec_Bootloader/production/_ext/1295770447/BigInt.o
LOAD build/default_-_avec_Bootloader/production/_ext/1295770447/BigInt_helper_C32.o
LOAD build/default_-_avec_Bootloader/production/_ext/1295770447/AutoIP.o
LOAD build/default_-_avec_Bootloader/production/_ext/1295770447/DNSs.o
LOAD build/default_-_avec_Bootloader/production/_ext/1295770447/ENCX24J600.o
LOAD build/default_-_avec_Bootloader/production/_ext/1295770447/ETHPIC32ExtPhy.o
LOAD build/default_-_avec_Bootloader/production/_ext/1295770447/ETHPIC32ExtPhyDP83848.o
LOAD build/default_-_avec_Bootloader/production/_ext/1295770447/ETHPIC32IntMac.o
LOAD build/default_-_avec_Bootloader/production/_ext/1472/rs232.o
LOAD build/default_-_avec_Bootloader/production/_ext/1472/Mynetmemo.o
LOAD build/default_-_avec_Bootloader/production/_ext/1472/Eeprom_i2c.o
LOAD build/default_-_avec_Bootloader/production/_ext/1472/Temperature.o
LOAD build/default_-_avec_Bootloader/production/_ext/1472/Teleinfo.o
LOAD build/default_-_avec_Bootloader/production/_ext/1472/log.o
LOAD build/default_-_avec_Bootloader/production/_ext/1472/SSLCert.o
LOAD build/default_-_avec_Bootloader/production/_ext/1472/divers.o
LOAD build/default_-_avec_Bootloader/production/_ext/1472/SST25VF016.o
LOAD build/default_-_avec_Bootloader/production/_ext/1472/drv_spi.o
LOAD build/default_-_avec_Bootloader/production/_ext/1472/mcp7941.o
LOAD build/default_-_avec_Bootloader/production/_ext/1472/RTC.o
LOAD build/default_-_avec_Bootloader/production/_ext/1472/0_SparkBox.o
LOAD build/default_-_avec_Bootloader/production/_ext/1472/Lcd.o
LOAD build/default_-_avec_Bootloader/production/_ext/1472/Analogique.o
LOAD build/default_-_avec_Bootloader/production/_ext/1472/Evse.o
LOAD build/default_-_avec_Bootloader/production/_ext/1472/i2c.o
LOAD build/default_-_avec_Bootloader/production/_ext/1472/BD_sst.o
                0x00000001                __MPLAB_BUILD = 0x1
                0x00000400                PROVIDE (_min_stack_size, 0x400)
LOAD c:/program files (x86)/microchip/xc32/v1.31/bin/../lib/gcc/pic32mx/4.5.2/../../../../pic32mx/lib/./proc/32MX695F512L\processor.o
START GROUP
LOAD c:/program files (x86)/microchip/xc32/v1.31/bin/../lib/gcc/pic32mx/4.5.2/../../../../pic32mx/lib/size\libmchp_peripheral.a
END GROUP
START GROUP
LOAD c:/program files (x86)/microchip/xc32/v1.31/bin/../lib/gcc/pic32mx/4.5.2/../../../../pic32mx/lib/size\libmchp_peripheral_32MX695F512L.a
END GROUP
                0x00000000                _ramfunc_begin = 0x0
                0x00000001                PROVIDE (_vector_spacing, 0x1)
                0x9d006000                _ebase_address = 0x9d006000
                0x9d001970                //_RESET_ADDR = 0x9d001970
                0x9d007970                _RESET_ADDR = 0x9d007970
                0x9d007cf0                _BEV_EXCPT_ADDR = 0x9d007cf0
                0x9d007df0                _DBG_EXCPT_ADDR = 0x9d007df0
                0xbfc02000                _DBG_CODE_ADDR = 0xbfc02000
                0x00000ff0                _DBG_CODE_SIZE = 0xff0
                0x9d006180                _GEN_EXCPT_ADDR = (_ebase_address + 0x180)
                0xbfc02000                PROVIDE (_DBG_CODE_ADDR, 0xbfc02000)
                0x00000ff0                PROVIDE (_DBG_CODE_SIZE, 0xff0)

.reset          0x9d007970      0x1e8
 *(.reset)
 .reset         0x9d007970      0x1e8 c:/program files (x86)/microchip/xc32/v1.31/bin/../lib/gcc/pic32mx/4.5.2/../../../../pic32mx/lib/./proc/32MX695F512L/crt0_mips32r2.o
                0x9d007970                _reset
 *(.reset.startup)

.bev_excpt      0x9d007cf0       0x10
 *(.bev_handler)
 .bev_handler   0x9d007cf0       0x10 c:/program files (x86)/microchip/xc32/v1.31/bin/../lib/gcc/pic32mx/4.5.2/../../../../pic32mx/lib/./proc/32MX695F512L/crt0_mips32r2.o

.dbg_excpt      0x9d007df0        0x0
                0x9d007df0                . = (. + DEFINED (_DEBUGGER)?0x8:0x0)

.dbg_code       0xbfc02000        0x0
                0xbfc02000                . = (. + DEFINED (_DEBUGGER)?_DBG_CODE_SIZE:0x0)

.app_excpt      0x9d006180       0x10
 *(.gen_handler)
 .gen_handler   0x9d006180       0x10 c:/program files (x86)/microchip/xc32/v1.31/bin/../lib/gcc/pic32mx/4.5.2/../../../../pic32mx/lib/./proc/32MX695F512L/crt0_mips32r2.o

.vector_0       0x9d006200        0x0
 *(.vector_0)
                0x00000001                ASSERT (((_vector_spacing == 0x0) || (SIZEOF (.vector_0) <= (_vector_spacing << 0x5))), function at exception vector 0 too large)

.vector_1       0x9d006220        0x0
 *(.vector_1)
                0x00000001                ASSERT (((_vector_spacing == 0x0) || (SIZEOF (.vector_1) <= (_vector_spacing << 0x5))), function at exception vector 1 too large)

.vector_2       0x9d006240        0x0
 *(.vector_2)
                0x00000001                ASSERT (((_vector_spacing == 0x0) || (SIZEOF (.vector_2) <= (_vector_spacing << 0x5))), function at exception vector 2 too large)

.vector_3       0x9d006260        0x0
 *(.vector_3)
                0x00000001                ASSERT (((_vector_spacing == 0x0) || (SIZEOF (.vector_3) <= (_vector_spacing << 0x5))), function at exception vector 3 too large)

.vector_4       0x9d006280        0x8
 *(.vector_4)
 .vector_4      0x9d006280        0x8 build/default_-_avec_Bootloader/production/_ext/1295770447/Tick.o
                0x9d006280                __vector_dispatch_4
                0x00000001                ASSERT (((_vector_spacing == 0x0) || (SIZEOF (.vector_4) <= (_vector_spacing << 0x5))), function at exception vector 4 too large)

.vector_5       0x9d0062a0        0x0
 *(.vector_5)
                0x00000001                ASSERT (((_vector_spacing == 0x0) || (SIZEOF (.vector_5) <= (_vector_spacing << 0x5))), function at exception vector 5 too large)

.vector_6       0x9d0062c0        0x0
 *(.vector_6)
                0x00000001                ASSERT (((_vector_spacing == 0x0) || (SIZEOF (.vector_6) <= (_vector_spacing << 0x5))), function at exception vector 6 too large)

.vector_7       0x9d0062e0        0x0
 *(.vector_7)
                0x00000001                ASSERT (((_vector_spacing == 0x0) || (SIZEOF (.vector_7) <= (_vector_spacing << 0x5))), function at exception vector 7 too large)

.vector_8       0x9d006300        0x8
 *(.vector_8)
 .vector_8      0x9d006300        0x8 build/default_-_avec_Bootloader/production/_ext/1472/Evse.o
                0x9d006300                __vector_dispatch_8
                0x00000001                ASSERT (((_vector_spacing == 0x0) || (SIZEOF (.vector_8) <= (_vector_spacing << 0x5))), function at exception vector 8 too large)

.vector_9       0x9d006320        0x0
 *(.vector_9)
                0x00000001                ASSERT (((_vector_spacing == 0x0) || (SIZEOF (.vector_9) <= (_vector_spacing << 0x5))), function at exception vector 9 too large)

.vector_10      0x9d006340        0x0
 *(.vector_10)
                0x00000001                ASSERT (((_vector_spacing == 0x0) || (SIZEOF (.vector_10) <= (_vector_spacing << 0x5))), function at exception vector 10 too large)

.vector_11      0x9d006360        0x0
 *(.vector_11)
                0x00000001                ASSERT (((_vector_spacing == 0x0) || (SIZEOF (.vector_11) <= (_vector_spacing << 0x5))), function at exception vector 11 too large)

.vector_12      0x9d006380        0x8
 *(.vector_12)
 .vector_12     0x9d006380        0x8 build/default_-_avec_Bootloader/production/_ext/1472/Evse.o
                0x9d006380                __vector_dispatch_12
                0x00000001                ASSERT (((_vector_spacing == 0x0) || (SIZEOF (.vector_12) <= (_vector_spacing << 0x5))), function at exception vector 12 too large)

.vector_13      0x9d0063a0        0x0
 *(.vector_13)
                0x00000001                ASSERT (((_vector_spacing == 0x0) || (SIZEOF (.vector_13) <= (_vector_spacing << 0x5))), function at exception vector 13 too large)

.vector_14      0x9d0063c0        0x0
 *(.vector_14)
                0x00000001                ASSERT (((_vector_spacing == 0x0) || (SIZEOF (.vector_14) <= (_vector_spacing << 0x5))), function at exception vector 14 too large)

.vector_15      0x9d0063e0        0x0
 *(.vector_15)
                0x00000001                ASSERT (((_vector_spacing == 0x0) || (SIZEOF (.vector_15) <= (_vector_spacing << 0x5))), function at exception vector 15 too large)

.vector_16      0x9d006400        0x0
 *(.vector_16)
                0x00000001                ASSERT (((_vector_spacing == 0x0) || (SIZEOF (.vector_16) <= (_vector_spacing << 0x5))), function at exception vector 16 too large)

.vector_17      0x9d006420        0x0
 *(.vector_17)
                0x00000001                ASSERT (((_vector_spacing == 0x0) || (SIZEOF (.vector_17) <= (_vector_spacing << 0x5))), function at exception vector 17 too large)

.vector_18      0x9d006440        0x0
 *(.vector_18)
                0x00000001                ASSERT (((_vector_spacing == 0x0) || (SIZEOF (.vector_18) <= (_vector_spacing << 0x5))), function at exception vector 18 too large)

.vector_19      0x9d006460        0x0
 *(.vector_19)
                0x00000001                ASSERT (((_vector_spacing == 0x0) || (SIZEOF (.vector_19) <= (_vector_spacing << 0x5))), function at exception vector 19 too large)

.vector_20      0x9d006480        0x0
 *(.vector_20)
                0x00000001                ASSERT (((_vector_spacing == 0x0) || (SIZEOF (.vector_20) <= (_vector_spacing << 0x5))), function at exception vector 20 too large)

.vector_21      0x9d0064a0        0x0
 *(.vector_21)
                0x00000001                ASSERT (((_vector_spacing == 0x0) || (SIZEOF (.vector_21) <= (_vector_spacing << 0x5))), function at exception vector 21 too large)

.vector_22      0x9d0064c0        0x0
 *(.vector_22)
                0x00000001                ASSERT (((_vector_spacing == 0x0) || (SIZEOF (.vector_22) <= (_vector_spacing << 0x5))), function at exception vector 22 too large)

.vector_23      0x9d0064e0        0x0
 *(.vector_23)
                0x00000001                ASSERT (((_vector_spacing == 0x0) || (SIZEOF (.vector_23) <= (_vector_spacing << 0x5))), function at exception vector 23 too large)

.vector_24      0x9d006500        0x0
 *(.vector_24)
                0x00000001                ASSERT (((_vector_spacing == 0x0) || (SIZEOF (.vector_24) <= (_vector_spacing << 0x5))), function at exception vector 24 too large)

.vector_25      0x9d006520        0x0
 *(.vector_25)
                0x00000001                ASSERT (((_vector_spacing == 0x0) || (SIZEOF (.vector_25) <= (_vector_spacing << 0x5))), function at exception vector 25 too large)

.vector_26      0x9d006540        0x0
 *(.vector_26)
                0x00000001                ASSERT (((_vector_spacing == 0x0) || (SIZEOF (.vector_26) <= (_vector_spacing << 0x5))), function at exception vector 26 too large)

.vector_27      0x9d006560        0x8
 *(.vector_27)
 .vector_27     0x9d006560        0x8 build/default_-_avec_Bootloader/production/_ext/1472/Analogique.o
                0x9d006560                __vector_dispatch_27
                0x00000001                ASSERT (((_vector_spacing == 0x0) || (SIZEOF (.vector_27) <= (_vector_spacing << 0x5))), function at exception vector 27 too large)

.vector_28      0x9d006580        0x0
 *(.vector_28)
                0x00000001                ASSERT (((_vector_spacing == 0x0) || (SIZEOF (.vector_28) <= (_vector_spacing << 0x5))), function at exception vector 28 too large)

.vector_29      0x9d0065a0        0x0
 *(.vector_29)
                0x00000001                ASSERT (((_vector_spacing == 0x0) || (SIZEOF (.vector_29) <= (_vector_spacing << 0x5))), function at exception vector 29 too large)

.vector_30      0x9d0065c0        0x0
 *(.vector_30)
                0x00000001                ASSERT (((_vector_spacing == 0x0) || (SIZEOF (.vector_30) <= (_vector_spacing << 0x5))), function at exception vector 30 too large)

.vector_31      0x9d0065e0        0x0
 *(.vector_31)
                0x00000001                ASSERT (((_vector_spacing == 0x0) || (SIZEOF (.vector_31) <= (_vector_spacing << 0x5))), function at exception vector 31 too large)

.vector_32      0x9d006600        0x0
 *(.vector_32)
                0x00000001                ASSERT (((_vector_spacing == 0x0) || (SIZEOF (.vector_32) <= (_vector_spacing << 0x5))), function at exception vector 32 too large)

.vector_33      0x9d006620        0x0
 *(.vector_33)
                0x00000001                ASSERT (((_vector_spacing == 0x0) || (SIZEOF (.vector_33) <= (_vector_spacing << 0x5))), function at exception vector 33 too large)

.vector_34      0x9d006640        0x0
 *(.vector_34)
                0x00000001                ASSERT (((_vector_spacing == 0x0) || (SIZEOF (.vector_34) <= (_vector_spacing << 0x5))), function at exception vector 34 too large)

.vector_35      0x9d006660        0x0
 *(.vector_35)
                0x00000001                ASSERT (((_vector_spacing == 0x0) || (SIZEOF (.vector_35) <= (_vector_spacing << 0x5))), function at exception vector 35 too large)

.vector_36      0x9d006680        0x0
 *(.vector_36)
                0x00000001                ASSERT (((_vector_spacing == 0x0) || (SIZEOF (.vector_36) <= (_vector_spacing << 0x5))), function at exception vector 36 too large)

.vector_37      0x9d0066a0        0x0
 *(.vector_37)
                0x00000001                ASSERT (((_vector_spacing == 0x0) || (SIZEOF (.vector_37) <= (_vector_spacing << 0x5))), function at exception vector 37 too large)

.vector_38      0x9d0066c0        0x0
 *(.vector_38)
                0x00000001                ASSERT (((_vector_spacing == 0x0) || (SIZEOF (.vector_38) <= (_vector_spacing << 0x5))), function at exception vector 38 too large)

.vector_39      0x9d0066e0        0x0
 *(.vector_39)
                0x00000001                ASSERT (((_vector_spacing == 0x0) || (SIZEOF (.vector_39) <= (_vector_spacing << 0x5))), function at exception vector 39 too large)

.vector_40      0x9d006700        0x0
 *(.vector_40)
                0x00000001                ASSERT (((_vector_spacing == 0x0) || (SIZEOF (.vector_40) <= (_vector_spacing << 0x5))), function at exception vector 40 too large)

.vector_41      0x9d006720        0x0
 *(.vector_41)
                0x00000001                ASSERT (((_vector_spacing == 0x0) || (SIZEOF (.vector_41) <= (_vector_spacing << 0x5))), function at exception vector 41 too large)

.vector_42      0x9d006740        0x0
 *(.vector_42)
                0x00000001                ASSERT (((_vector_spacing == 0x0) || (SIZEOF (.vector_42) <= (_vector_spacing << 0x5))), function at exception vector 42 too large)

.vector_43      0x9d006760        0x0
 *(.vector_43)
                0x00000001                ASSERT (((_vector_spacing == 0x0) || (SIZEOF (.vector_43) <= (_vector_spacing << 0x5))), function at exception vector 43 too large)

.vector_44      0x9d006780        0x0
 *(.vector_44)
                0x00000001                ASSERT (((_vector_spacing == 0x0) || (SIZEOF (.vector_44) <= (_vector_spacing << 0x5))), function at exception vector 44 too large)

.vector_45      0x9d0067a0        0x0
 *(.vector_45)
                0x00000001                ASSERT (((_vector_spacing == 0x0) || (SIZEOF (.vector_45) <= (_vector_spacing << 0x5))), function at exception vector 45 too large)

.vector_46      0x9d0067c0        0x0
 *(.vector_46)
                0x00000001                ASSERT (((_vector_spacing == 0x0) || (SIZEOF (.vector_46) <= (_vector_spacing << 0x5))), function at exception vector 46 too large)

.vector_47      0x9d0067e0        0x0
 *(.vector_47)
                0x00000001                ASSERT (((_vector_spacing == 0x0) || (SIZEOF (.vector_47) <= (_vector_spacing << 0x5))), function at exception vector 47 too large)

.vector_48      0x9d006800        0x0
 *(.vector_48)
                0x00000001                ASSERT (((_vector_spacing == 0x0) || (SIZEOF (.vector_48) <= (_vector_spacing << 0x5))), function at exception vector 48 too large)

.vector_49      0x9d006820        0x8
 *(.vector_49)
 .vector_49     0x9d006820        0x8 build/default_-_avec_Bootloader/production/_ext/1472/rs232.o
                0x9d006820                __vector_dispatch_49
                0x00000001                ASSERT (((_vector_spacing == 0x0) || (SIZEOF (.vector_49) <= (_vector_spacing << 0x5))), function at exception vector 49 too large)

.vector_50      0x9d006840        0x0
 *(.vector_50)
                0x00000001                ASSERT (((_vector_spacing == 0x0) || (SIZEOF (.vector_50) <= (_vector_spacing << 0x5))), function at exception vector 50 too large)

.vector_51      0x9d006860        0x8
 *(.vector_51)
 .vector_51     0x9d006860        0x8 build/default_-_avec_Bootloader/production/_ext/1472/rs232.o
                0x9d006860                __vector_dispatch_51
                0x00000001                ASSERT (((_vector_spacing == 0x0) || (SIZEOF (.vector_51) <= (_vector_spacing << 0x5))), function at exception vector 51 too large)

.vector_52      0x9d006880        0x0
 *(.vector_52)
                0x00000001                ASSERT (((_vector_spacing == 0x0) || (SIZEOF (.vector_52) <= (_vector_spacing << 0x5))), function at exception vector 52 too large)

.vector_53      0x9d0068a0        0x0
 *(.vector_53)
                0x00000001                ASSERT (((_vector_spacing == 0x0) || (SIZEOF (.vector_53) <= (_vector_spacing << 0x5))), function at exception vector 53 too large)

.vector_54      0x9d0068c0        0x0
 *(.vector_54)
                0x00000001                ASSERT (((_vector_spacing == 0x0) || (SIZEOF (.vector_54) <= (_vector_spacing << 0x5))), function at exception vector 54 too large)

.vector_55      0x9d0068e0        0x0
 *(.vector_55)
                0x00000001                ASSERT (((_vector_spacing == 0x0) || (SIZEOF (.vector_55) <= (_vector_spacing << 0x5))), function at exception vector 55 too large)

.vector_56      0x9d006900        0x0
 *(.vector_56)
                0x00000001                ASSERT (((_vector_spacing == 0x0) || (SIZEOF (.vector_56) <= (_vector_spacing << 0x5))), function at exception vector 56 too large)

.vector_57      0x9d006920        0x0
 *(.vector_57)
                0x00000001                ASSERT (((_vector_spacing == 0x0) || (SIZEOF (.vector_57) <= (_vector_spacing << 0x5))), function at exception vector 57 too large)

.vector_58      0x9d006940        0x0
 *(.vector_58)
                0x00000001                ASSERT (((_vector_spacing == 0x0) || (SIZEOF (.vector_58) <= (_vector_spacing << 0x5))), function at exception vector 58 too large)

.vector_59      0x9d006960        0x0
 *(.vector_59)
                0x00000001                ASSERT (((_vector_spacing == 0x0) || (SIZEOF (.vector_59) <= (_vector_spacing << 0x5))), function at exception vector 59 too large)

.vector_60      0x9d006980        0x0
 *(.vector_60)
                0x00000001                ASSERT (((_vector_spacing == 0x0) || (SIZEOF (.vector_60) <= (_vector_spacing << 0x5))), function at exception vector 60 too large)

.vector_61      0x9d0069a0        0x0
 *(.vector_61)
                0x00000001                ASSERT (((_vector_spacing == 0x0) || (SIZEOF (.vector_61) <= (_vector_spacing << 0x5))), function at exception vector 61 too large)

.vector_62      0x9d0069c0        0x0
 *(.vector_62)
                0x00000001                ASSERT (((_vector_spacing == 0x0) || (SIZEOF (.vector_62) <= (_vector_spacing << 0x5))), function at exception vector 62 too large)

.vector_63      0x9d0069e0        0x0
 *(.vector_63)
                0x00000001                ASSERT (((_vector_spacing == 0x0) || (SIZEOF (.vector_63) <= (_vector_spacing << 0x5))), function at exception vector 63 too large)

.startup
 *(.startup)

.text           0x9d007e00        0x0
 *(.stub .gnu.linkonce.t.*)
 *(.text.*personality*)
 *(.mips16.fn.*)
 *(.mips16.call.*)
 *(.gnu.warning)
                0x9d007e00                . = ALIGN (0x4)

.init           0x9d007e00        0x0
 *crti.o(.init)
 *crtbegin.o(.init)
 *(EXCLUDE_FILE(*crtn.o *crtend?.o *crtend.o) .init)
 *crtend.o(.init)
 *crtn.o(.init)
                0x9d007e00                . = ALIGN (0x4)

.fini           0x9d007e00        0x0
 *(.fini)
                0x9d007e00                . = ALIGN (0x4)

.preinit_array  0x9d007e00        0x0
                0x9d007e00                PROVIDE (__preinit_array_start, .)
 *(.preinit_array)
                0x9d007e00                PROVIDE (__preinit_array_end, .)
                0x9d007e00                . = ALIGN (0x4)

.init_array     0x9d007e00        0x0
                0x9d007e00                PROVIDE (__init_array_start, .)
 *(SORT(.init_array.*))
 *(.init_array)
                0x9d007e00                PROVIDE (__init_array_end, .)
                0x9d007e00                . = ALIGN (0x4)

.fini_array     0x9d007e00        0x0
                0x9d007e00                PROVIDE (__fini_array_start, .)
 *(SORT(.fini_array.*))
 *(.fini_array)
                0x9d007e00                PROVIDE (__fini_array_end, .)
                0x9d007e00                . = ALIGN (0x4)

.ctors          0x9d007e00        0x0
 *crtbegin.o(.ctors)
 *crtbegin?.o(.ctors)
 *(EXCLUDE_FILE(*crtend?.o *crtend.o) .ctors)
 *(SORT(.ctors.*))
 *(.ctors)
                0x9d007e00                . = ALIGN (0x4)

.dtors          0x9d007e00        0x0
 *crtbegin.o(.dtors)
 *crtbegin?.o(.dtors)
 *(EXCLUDE_FILE(*crtend?.o *crtend.o) .dtors)
 *(SORT(.dtors.*))
 *(.dtors)
                0x9d007e00                . = ALIGN (0x4)

.rodata         0x9d007e00        0x0
 *(.gnu.linkonce.r.*)
 *(.rodata1)
                0x9d007e00                . = ALIGN (0x4)

.sdata2         0x9d007000        0x0
 *(.sdata2 .sdata2.* .gnu.linkonce.s2.*)
                0x9d007000                . = ALIGN (0x4)

.sbss2          0x9d007000        0x0
 *(.sbss2 .sbss2.* .gnu.linkonce.sb2.*)
                0x9d007000                . = ALIGN (0x4)

.eh_frame_hdr
 *(.eh_frame_hdr)
                0x9d007000                . = ALIGN (0x4)

.eh_frame
 *(.eh_frame)
                0x9d007000                . = ALIGN (0x4)

.gcc_except_table
 *(.gcc_except_table .gcc_except_table.*)
                0x9d007000                . = ALIGN (0x4)

.dbg_data       0xa0000000        0x0
                0xa0000000                . = (. + DEFINED (_DEBUGGER)?0x200:0x0)

.jcr            0xa0000000        0x0
 *(.jcr)
                0xa0000000                . = ALIGN (0x4)

.eh_frame       0xa0000000       0x40
 *(.eh_frame)
 .eh_frame      0xa0000000       0x20 c:/program files (x86)/microchip/xc32/v1.31/bin/../lib/gcc/pic32mx/4.5.2/size\libgcc.a(_divdi3.o)
 .eh_frame      0xa0000020       0x10 c:/program files (x86)/microchip/xc32/v1.31/bin/../lib/gcc/pic32mx/4.5.2/size\libgcc.a(_udivdi3.o)
 .eh_frame      0xa0000030       0x10 c:/program files (x86)/microchip/xc32/v1.31/bin/../lib/gcc/pic32mx/4.5.2/size\libgcc.a(_umoddi3.o)
                0xa0000040                . = ALIGN (0x4)

.gcc_except_table
 *(.gcc_except_table .gcc_except_table.*)
                0xa0000040                . = ALIGN (0x4)

.persist        0xa0000040        0x0
                0xa0000040                _persist_begin = .
 *(.persist .persist.*)
 *(.pbss .pbss.*)
                0xa0000040                . = ALIGN (0x4)
                0xa0000040                _persist_end = .

.data           0xa0000040        0x0
 *(.gnu.linkonce.d.*)
 *(.data1)
                0xa0000040                . = ALIGN (0x4)
                0xa0000040                . = .
                0xa0008030                _gp = (ALIGN (0x10) + 0x7ff0)

.got            0xa0000040        0x0
 *(.got.plt)
 *(.got)
                0xa0000040                . = ALIGN (0x4)

.sdata          0xa0000040       0x38
                0xa0000040                _sdata_begin = .
 *(.sdata .sdata.* .gnu.linkonce.s.*)
 .sdata         0xa0000040        0x1 build/default_-_avec_Bootloader/production/_ext/1472/HTTP_Donnees.o
                0xa0000040                donnees_mois
 *fill*         0xa0000041        0x3 
 .sdata         0xa0000044        0x8 build/default_-_avec_Bootloader/production/_ext/1295770447/DNS.o
 .sdata         0xa000004c        0x4 build/default_-_avec_Bootloader/production/_ext/1295770447/Helpers.o
 .sdata         0xa0000050        0x1 build/default_-_avec_Bootloader/production/_ext/1295770447/SMTP.o
 .sdata         0xa0000051        0x2 build/default_-_avec_Bootloader/production/_ext/1295770447/TCP.o
 .sdata         0xa0000053        0x2 build/default_-_avec_Bootloader/production/_ext/1295770447/UDP.o
 *fill*         0xa0000055        0x3 
 .sdata         0xa0000058        0x8 build/default_-_avec_Bootloader/production/_ext/1472/divers.o
                0xa0000058                Piezzo
 .sdata         0xa0000060        0x3 build/default_-_avec_Bootloader/production/_ext/1472/0_SparkBox.o
                0xa0000060                OPTO1_FILTRE
                0xa0000061                OPTO2_FILTRE
                0xa0000062                BP_FILTRE
 *fill*         0xa0000063        0x1 
 .sdata         0xa0000064        0x8 build/default_-_avec_Bootloader/production/_ext/1472/Analogique.o
 .sdata         0xa000006c        0x2 build/default_-_avec_Bootloader/production/_ext/1472/Evse.o
                0xa000006c                bp_ext_sav
 *fill*         0xa000006e        0x2 
 .sdata         0xa0000070        0x4 c:/program files (x86)/microchip/xc32/v1.31/bin/../lib/gcc/pic32mx/4.5.2/../../../../pic32mx/lib/size\libc.a(_iob.o)
                0xa0000070                _Files
 .sdata         0xa0000074        0x4 c:/program files (x86)/microchip/xc32/v1.31/bin/../lib/gcc/pic32mx/4.5.2/../../../../pic32mx/lib/size\libpic32.a(xc32_uart.o)
                0xa0000074                __XC_UART
                0xa0000078                . = ALIGN (0x4)
                0xa0000078                _sdata_end = .

.lit8
 *(.lit8)

.lit4
 *(.lit4)
                0xa0000078                . = ALIGN (0x4)
                0xa0000078                _data_end = .
                0xa0000078                _bss_begin = .

.sbss           0xa0000078      0x2ac
                0xa0000078                _sbss_begin = .
 *(.dynsbss)
 *(.sbss .sbss.* .gnu.linkonce.sb.*)
 .sbss          0xa0000078        0x2 build/default_-_avec_Bootloader/production/_ext/1472/HTTP_Mynetmemo.o
 *fill*         0xa000007a        0x2 
 .sbss          0xa000007c        0xc build/default_-_avec_Bootloader/production/_ext/1472/HTTP_log.o
                0xa000007c                val
                0xa000007d                val1
                0xa000007e                val2
                0xa000007f                val3
 .sbss          0xa0000088        0x2 build/default_-_avec_Bootloader/production/_ext/1472/HTTP_Donnees.o
                0xa0000088                donnees_an
 *fill*         0xa000008a        0x2 
 .sbss          0xa000008c       0x14 build/default_-_avec_Bootloader/production/_ext/1472/HTTP_ADTEK.o
                0xa000008c                lastSuccess
                0xa0000090                lastFailure
                0xa0000094                TGetRelais
                0xa0000098                message_test_alarme_mail
                0xa000009c                message_test_alarme_sms
 .sbss          0xa00000a0        0x8 build/default_-_avec_Bootloader/production/_ext/1295770447/Announce.o
 .sbss          0xa00000a8        0x4 build/default_-_avec_Bootloader/production/_ext/1295770447/ARP.o
 .sbss          0xa00000ac        0x4 build/default_-_avec_Bootloader/production/_ext/1295770447/DHCP.o
                0xa00000ac                DHCPClientInitializedOnce
 .sbss          0xa00000b0       0x14 build/default_-_avec_Bootloader/production/_ext/1295770447/DNS.o
 .sbss          0xa00000c4        0x4 build/default_-_avec_Bootloader/production/_ext/1295770447/IP.o
 .sbss          0xa00000c8        0x8 build/default_-_avec_Bootloader/production/_ext/1295770447/MPFS2.o
 .sbss          0xa00000d0        0x8 build/default_-_avec_Bootloader/production/_ext/1295770447/NBNS.o
 .sbss          0xa00000d8       0x38 build/default_-_avec_Bootloader/production/_ext/1295770447/SMTP.o
 .sbss          0xa0000110        0xc build/default_-_avec_Bootloader/production/_ext/1295770447/StackTsk.o
 .sbss          0xa000011c        0xc build/default_-_avec_Bootloader/production/_ext/1295770447/Tick.o
 .sbss          0xa0000128        0x8 build/default_-_avec_Bootloader/production/_ext/1295770447/UDP.o
 .sbss          0xa0000130        0x1 build/default_-_avec_Bootloader/production/_ext/1295770447/Random.o
 *fill*         0xa0000131        0x3 
 .sbss          0xa0000134        0xc build/default_-_avec_Bootloader/production/_ext/1295770447/SSL.o
 .sbss          0xa0000140       0x18 build/default_-_avec_Bootloader/production/_ext/1295770447/ENCX24J600.o
 .sbss          0xa0000158        0xc build/default_-_avec_Bootloader/production/_ext/1472/Mynetmemo.o
 .sbss          0xa0000164        0x6 build/default_-_avec_Bootloader/production/_ext/1472/Temperature.o
 *fill*         0xa000016a        0x2 
 .sbss          0xa000016c       0x30 build/default_-_avec_Bootloader/production/_ext/1472/Teleinfo.o
                0xa000016c                itel
 .sbss          0xa000019c        0x8 build/default_-_avec_Bootloader/production/_ext/1472/log.o
                0xa000019c                cpt1s_log
                0xa00001a0                Fichier_Present
 .sbss          0xa00001a4        0x1 build/default_-_avec_Bootloader/production/_ext/1472/divers.o
 *fill*         0xa00001a5        0x3 
 .sbss          0xa00001a8       0x18 build/default_-_avec_Bootloader/production/_ext/1472/RTC.o
 .sbss          0xa00001c0       0x44 build/default_-_avec_Bootloader/production/_ext/1472/0_SparkBox.o
                0xa00001c0                cpt1s
                0xa00001c4                cpt1ms
                0xa00001c8                nb_heures
                0xa00001cc                debug_ui1
                0xa00001d0                debug_ui2
                0xa00001d4                debug_ui3
                0xa00001d8                debug_ui4
                0xa00001dc                debug_ui5
                0xa00001e0                debug_s1
                0xa00001e2                CARTE
                0xa00001e3                VERSION_HARD
                0xa00001e4                NB_RELAIS
                0xa00001e5                FONCTION
                0xa00001e6                Mode_Admin
                0xa00001e8                Mode_Admin_cpt1s
                0xa00001ec                cpt1s_Ind
                0xa00001f0                loop_count
                0xa00001f2                loop_count_mem
                0xa00001f4                affichage_debug
                0xa00001f8                UTC_ProchainSNTP
 .sbss          0xa0000204        0x8 build/default_-_avec_Bootloader/production/_ext/1472/Lcd.o
 .sbss          0xa000020c       0x1c build/default_-_avec_Bootloader/production/_ext/1472/Analogique.o
 .sbss          0xa0000228       0x44 build/default_-_avec_Bootloader/production/_ext/1472/Evse.o
                0xa0000228                Pilot_1kHz
                0xa0000229                Pilot_1kHz_Pulse
                0xa000022c                rstuck_cpt1ms
                0xa0000230                Mode
 .sbss          0xa000026c        0x1 build/default_-_avec_Bootloader/production/_ext/1472/BD_sst.o
                0xa000026c                indtu_sav
 *fill*         0xa000026d        0x3 
 .sbss          0xa0000270        0x4 c:/program files (x86)/microchip/xc32/v1.31/bin/../lib/gcc/pic32mx/4.5.2/../../../../pic32mx/lib/size\libpic32.a(errno.o)
                0xa0000270                errno
 .sbss          0xa0000274        0x1 c:/program files (x86)/microchip/xc32/v1.31/bin/../lib/gcc/pic32mx/4.5.2/../../../../pic32mx/lib/size\libc.a(_iob.o)
                0xa0000274                _outdone
 *(.scommon)
 .scommon       0xa0000275        0x1 build/default_-_avec_Bootloader/production/_ext/1472/HTTP_Parametres.o
                0xa0000275                Erreur_Http_Parametre
 *fill*         0xa0000276        0x2 
 .scommon       0xa0000278       0x14 build/default_-_avec_Bootloader/production/_ext/1472/HTTP_Donnees.o
                0xa0000278                tdonnees_matin
                0xa000027c                tindex_soir
                0xa0000280                tindex_matin
                0xa0000284                tindex_calc
                0xa0000288                tdonnees_soir
 .scommon       0xa000028c        0xc build/default_-_avec_Bootloader/production/_ext/1472/HTTP_ADTEK.o
                0xa000028c                ptr_get
                0xa0000290                num
                0xa0000294                Temp_i
 .scommon       0xa0000298        0x1 build/default_-_avec_Bootloader/production/_ext/1295770447/HTTP2.o
                0xa0000298                curHTTPID
 *fill*         0xa0000299        0x1 
 .scommon       0xa000029a        0x6 build/default_-_avec_Bootloader/production/_ext/1295770447/UDP.o
                0xa000029a                UDPTxCount
                0xa000029c                activeUDPSocket
                0xa000029e                UDPRxCount
 .scommon       0xa00002a0        0xc build/default_-_avec_Bootloader/production/_ext/1295770447/SSL.o
                0xa00002a0                isStubUsed
                0xa00002a2                isBufferUsed
                0xa00002a4                isHashUsed
                0xa00002a8                ptrHS
 .scommon       0xa00002ac        0xf build/default_-_avec_Bootloader/production/_ext/1472/rs232.o
                0xa00002ac                int_status_rs
                0xa00002b0                Tele1rxcurrent
                0xa00002b4                Tele1rxready
                0xa00002b8                Tele2rxready
                0xa00002ba                Tele2rxcurrent
 *fill*         0xa00002bb        0x1 
 .scommon       0xa00002bc        0x4 build/default_-_avec_Bootloader/production/_ext/1472/Eeprom_i2c.o
                0xa00002bc                erreur_eeprom_cpt1s
 .scommon       0xa00002c0        0x6 build/default_-_avec_Bootloader/production/_ext/1472/Temperature.o
                0xa00002c0                fi
                0xa00002c2                elementInsere
                0xa00002c4                Valeur_Mediane
                0xa00002c5                fj
 *fill*         0xa00002c6        0x2 
 .scommon       0xa00002c8       0x24 build/default_-_avec_Bootloader/production/_ext/1472/Teleinfo.o
                0xa00002c8                index_lu
                0xa00002d0                index_sav
                0xa00002d8                Tele_State
                0xa00002e0                cpt_tele
                0xa00002e8                error_crc
 .scommon       0xa00002ec        0x3 build/default_-_avec_Bootloader/production/_ext/1472/log.o
                0xa00002ec                Index_Nb_Lignes
                0xa00002ed                Index_Read
                0xa00002ee                Index_Log
 *fill*         0xa00002ef        0x1 
 .scommon       0xa00002f0       0x30 build/default_-_avec_Bootloader/production/_ext/1472/0_SparkBox.o
                0xa00002f0                cpt1m
                0xa00002f4                utc_min
                0xa00002f6                utc_heure
                0xa00002f8                t_jour
                0xa0000300                Date_Ind
                0xa0000306                utc_sec
                0xa0000308                l_utc
                0xa0000310                t_minute
                0xa0000318                i_utc
 .scommon       0xa0000320        0x4 build/default_-_avec_Bootloader/production/_ext/1472/Evse.o
                0xa0000320                Pwm
                0xa0000324                _sbss_end = .
                0xa0000324                . = ALIGN (0x4)

.bss            0xa0000324     0x2f70
 *(.dynbss)
 *(COMMON)
 COMMON         0xa0000324      0x2f8 build/default_-_avec_Bootloader/production/_ext/1472/HTTP_Teleinfo.o
                0xa0000324                Mynetmemo
                0xa000039c                Mynetmemo_Socket
 COMMON         0xa000061c       0x76 build/default_-_avec_Bootloader/production/_ext/1472/HTTP_Mynetmemo.o
                0xa000061c                newMynetmemo
 *fill*         0xa0000692        0x2 
 COMMON         0xa0000694       0x24 build/default_-_avec_Bootloader/production/_ext/1472/HTTP_log.o
                0xa0000694                tm_data
 COMMON         0xa00006b8      0x504 build/default_-_avec_Bootloader/production/_ext/1472/HTTP_ADTEK.o
                0xa00006b8                Temp_c
                0xa00007b4                Http_Temp
                0xa00007d4                Http_byte2
                0xa00009c8                Http_byte
 COMMON         0xa0000bbc       0x40 build/default_-_avec_Bootloader/production/_ext/1295770447/Hashes.o
                0xa0000bbc                lastBlock
 COMMON         0xa0000bfc       0x9c build/default_-_avec_Bootloader/production/_ext/1295770447/HTTP2.o
                0xa0000bfc                curHTTP
                0xa0000c88                httpStubs
 COMMON         0xa0000c98       0x34 build/default_-_avec_Bootloader/production/_ext/1295770447/SMTP.o
                0xa0000c98                SMTPClient
 COMMON         0xa0000ccc        0xa build/default_-_avec_Bootloader/production/_ext/1295770447/StackTsk.o
                0xa0000ccc                remoteNode
 *fill*         0xa0000cd6        0x2 
 COMMON         0xa0000cd8      0x1a4 build/default_-_avec_Bootloader/production/_ext/1295770447/UDP.o
                0xa0000cd8                UDPSocketInfo
 COMMON         0xa0000e7c      0x1bc build/default_-_avec_Bootloader/production/_ext/1295770447/SSL.o
                0xa0000e7c                sslSessionStubs
                0xa0000e8c                sslHash
                0xa0000ee8                sslBuffer
                0xa0000fe8                sslSession
 COMMON         0xa0001038      0x100 build/default_-_avec_Bootloader/production/_ext/1472/rs232.o
                0xa0001038                Tele1rxbuffer
                0xa00010b8                Tele2rxbuffer
 COMMON         0xa0001138      0x18d build/default_-_avec_Bootloader/production/_ext/1472/Temperature.o
                0xa0001138                Filtre_Capteur
                0xa000128c                Filtre_Nb
                0xa00012a0                Filtre_Temp
                0xa00012b4                Filtre_Ptr
 *fill*         0xa00012c5        0x3 
 COMMON         0xa00012c8      0x2c4 build/default_-_avec_Bootloader/production/_ext/1472/Teleinfo.o
                0xa00012c8                Compteur
                0xa00014e0                out
                0xa0001508                CurrentMessage
                0xa000154c                ValidMessage
 COMMON         0xa000158c     0x1560 build/default_-_avec_Bootloader/production/_ext/1472/log.o
                0xa000158c                Date_Log
                0xa0001598                NomFichierLog
                0xa00015ac                Log
 COMMON         0xa0002aec      0x228 build/default_-_avec_Bootloader/production/_ext/1472/RTC.o
                0xa0002aec                ADTEK_TS_Socket
                0xa0002b14                ADTEK_DataUrl
 COMMON         0xa0002d14      0x530 build/default_-_avec_Bootloader/production/_ext/1472/0_SparkBox.o
                0xa0002d14                utc
                0xa0002d24                Relais_Man
                0xa0002d44                User
                0xa0002d70                NomFichierIndex
                0xa0002d84                Sparkbox
                0xa00031f0                AppConfig
                0xa0003224                analogCalc
 COMMON         0xa0003244       0x28 build/default_-_avec_Bootloader/production/_ext/1472/Analogique.o
                0xa0003244                Analog
 COMMON         0xa000326c       0x28 build/default_-_avec_Bootloader/production/_ext/1472/Evse.o
                0xa000326c                Evse
                0xa0003294                . = ALIGN ((. != 0x0)?0x4:0x1)
                0xa0003294                . = ALIGN (0x4)
                0xa0003294                _end = .
                0xa0003294                _bss_end = .
                0x00020000                _bmxdudba_address = 0x20000
                0x00020000                _bmxdupba_address = 0x20000

/DISCARD/
 *(.pdr)
 *(.rel.dyn)
 *(.note.GNU-stack)
 *(.note.GNU-stack)
 *(.gnu_debuglink)
 *(.gnu.lto_*)
 *(.discard)

.gptab.sdata
 *(.gptab.data)
 *(.gptab.sdata)

.gptab.sbss
 *(.gptab.bss)
 *(.gptab.sbss)

.mdebug.abi32   0xa0003294        0x0
 *(.mdebug.abi32)
 .mdebug.abi32  0xa0003294        0x0 build/default_-_avec_Bootloader/production/_ext/1472/HTTP_Teleinfo.o
 .mdebug.abi32  0xa0003294        0x0 build/default_-_avec_Bootloader/production/_ext/1472/HTTP_Reseau.o
 .mdebug.abi32  0xa0003294        0x0 build/default_-_avec_Bootloader/production/_ext/1472/HTTP_Mynetmemo.o
 .mdebug.abi32  0xa0003294        0x0 build/default_-_avec_Bootloader/production/_ext/1472/HTTP_Password.o
 .mdebug.abi32  0xa0003294        0x0 build/default_-_avec_Bootloader/production/_ext/1472/HTTP_log.o
 .mdebug.abi32  0xa0003294        0x0 build/default_-_avec_Bootloader/production/_ext/1472/HTTP_cmd.o
 .mdebug.abi32  0xa0003294        0x0 build/default_-_avec_Bootloader/production/_ext/1472/HTTP_Parametres.o
 .mdebug.abi32  0xa0003294        0x0 build/default_-_avec_Bootloader/production/_ext/1472/HTTP_Donnees.o
 .mdebug.abi32  0xa0003294        0x0 build/default_-_avec_Bootloader/production/_ext/1472/HTTP_Index.o
 .mdebug.abi32  0xa0003294        0x0 build/default_-_avec_Bootloader/production/_ext/1472/HTTP_ADTEK.o
 .mdebug.abi32  0xa0003294        0x0 build/default_-_avec_Bootloader/production/_ext/1295770447/Announce.o
 .mdebug.abi32  0xa0003294        0x0 build/default_-_avec_Bootloader/production/_ext/1295770447/ARP.o
 .mdebug.abi32  0xa0003294        0x0 build/default_-_avec_Bootloader/production/_ext/1295770447/Delay.o
 .mdebug.abi32  0xa0003294        0x0 build/default_-_avec_Bootloader/production/_ext/1295770447/DHCP.o
 .mdebug.abi32  0xa0003294        0x0 build/default_-_avec_Bootloader/production/_ext/1295770447/DHCPs.o
 .mdebug.abi32  0xa0003294        0x0 build/default_-_avec_Bootloader/production/_ext/1295770447/DNS.o
 .mdebug.abi32  0xa0003294        0x0 build/default_-_avec_Bootloader/production/_ext/1295770447/DynDNS.o
 .mdebug.abi32  0xa0003294        0x0 build/default_-_avec_Bootloader/production/_ext/1295770447/FTP.o
 .mdebug.abi32  0xa0003294        0x0 build/default_-_avec_Bootloader/production/_ext/1295770447/Hashes.o
 .mdebug.abi32  0xa0003294        0x0 build/default_-_avec_Bootloader/production/_ext/1295770447/Helpers.o
 .mdebug.abi32  0xa0003294        0x0 build/default_-_avec_Bootloader/production/_ext/1295770447/HTTP2.o
 .mdebug.abi32  0xa0003294        0x0 build/default_-_avec_Bootloader/production/_ext/1295770447/ICMP.o
 .mdebug.abi32  0xa0003294        0x0 build/default_-_avec_Bootloader/production/_ext/1295770447/IP.o
 .mdebug.abi32  0xa0003294        0x0 build/default_-_avec_Bootloader/production/_ext/1295770447/MPFS2.o
 .mdebug.abi32  0xa0003294        0x0 build/default_-_avec_Bootloader/production/_ext/1295770447/NBNS.o
 .mdebug.abi32  0xa0003294        0x0 build/default_-_avec_Bootloader/production/_ext/1295770447/SMTP.o
 .mdebug.abi32  0xa0003294        0x0 build/default_-_avec_Bootloader/production/_ext/1295770447/SNMP.o
 .mdebug.abi32  0xa0003294        0x0 build/default_-_avec_Bootloader/production/_ext/1295770447/SNTP.o
 .mdebug.abi32  0xa0003294        0x0 build/default_-_avec_Bootloader/production/_ext/1295770447/SPIEEPROM.o
 .mdebug.abi32  0xa0003294        0x0 build/default_-_avec_Bootloader/production/_ext/1295770447/SPIFlash.o
 .mdebug.abi32  0xa0003294        0x0 build/default_-_avec_Bootloader/production/_ext/1295770447/SPIRAM.o
 .mdebug.abi32  0xa0003294        0x0 build/default_-_avec_Bootloader/production/_ext/1295770447/StackTsk.o
 .mdebug.abi32  0xa0003294        0x0 build/default_-_avec_Bootloader/production/_ext/1295770447/TCP.o
 .mdebug.abi32  0xa0003294        0x0 build/default_-_avec_Bootloader/production/_ext/1295770447/Telnet.o
 .mdebug.abi32  0xa0003294        0x0 build/default_-_avec_Bootloader/production/_ext/1295770447/TFTPc.o
 .mdebug.abi32  0xa0003294        0x0 build/default_-_avec_Bootloader/production/_ext/1295770447/Tick.o
 .mdebug.abi32  0xa0003294        0x0 build/default_-_avec_Bootloader/production/_ext/1295770447/UART.o
 .mdebug.abi32  0xa0003294        0x0 build/default_-_avec_Bootloader/production/_ext/1295770447/UDP.o
 .mdebug.abi32  0xa0003294        0x0 build/default_-_avec_Bootloader/production/_ext/1472/MPFSImg2.o
 .mdebug.abi32  0xa0003294        0x0 build/default_-_avec_Bootloader/production/_ext/1295770447/Random.o
 .mdebug.abi32  0xa0003294        0x0 build/default_-_avec_Bootloader/production/_ext/1295770447/RSA.o
 .mdebug.abi32  0xa0003294        0x0 build/default_-_avec_Bootloader/production/_ext/1295770447/SSL.o
 .mdebug.abi32  0xa0003294        0x0 build/default_-_avec_Bootloader/production/_ext/1295770447/ARCFOUR.o
 .mdebug.abi32  0xa0003294        0x0 build/default_-_avec_Bootloader/production/_ext/1295770447/BigInt.o
 .mdebug.abi32  0xa0003294        0x0 build/default_-_avec_Bootloader/production/_ext/1295770447/AutoIP.o
 .mdebug.abi32  0xa0003294        0x0 build/default_-_avec_Bootloader/production/_ext/1295770447/DNSs.o
 .mdebug.abi32  0xa0003294        0x0 build/default_-_avec_Bootloader/production/_ext/1295770447/ENCX24J600.o
 .mdebug.abi32  0xa0003294        0x0 build/default_-_avec_Bootloader/production/_ext/1295770447/ETHPIC32ExtPhy.o
 .mdebug.abi32  0xa0003294        0x0 build/default_-_avec_Bootloader/production/_ext/1295770447/ETHPIC32ExtPhyDP83848.o
 .mdebug.abi32  0xa0003294        0x0 build/default_-_avec_Bootloader/production/_ext/1295770447/ETHPIC32IntMac.o
 .mdebug.abi32  0xa0003294        0x0 build/default_-_avec_Bootloader/production/_ext/1472/rs232.o
 .mdebug.abi32  0xa0003294        0x0 build/default_-_avec_Bootloader/production/_ext/1472/Mynetmemo.o
 .mdebug.abi32  0xa0003294        0x0 build/default_-_avec_Bootloader/production/_ext/1472/Eeprom_i2c.o
 .mdebug.abi32  0xa0003294        0x0 build/default_-_avec_Bootloader/production/_ext/1472/Temperature.o
 .mdebug.abi32  0xa0003294        0x0 build/default_-_avec_Bootloader/production/_ext/1472/Teleinfo.o
 .mdebug.abi32  0xa0003294        0x0 build/default_-_avec_Bootloader/production/_ext/1472/log.o
 .mdebug.abi32  0xa0003294        0x0 build/default_-_avec_Bootloader/production/_ext/1472/SSLCert.o
 .mdebug.abi32  0xa0003294        0x0 build/default_-_avec_Bootloader/production/_ext/1472/divers.o
 .mdebug.abi32  0xa0003294        0x0 build/default_-_avec_Bootloader/production/_ext/1472/SST25VF016.o
 .mdebug.abi32  0xa0003294        0x0 build/default_-_avec_Bootloader/production/_ext/1472/drv_spi.o
 .mdebug.abi32  0xa0003294        0x0 build/default_-_avec_Bootloader/production/_ext/1472/mcp7941.o
 .mdebug.abi32  0xa0003294        0x0 build/default_-_avec_Bootloader/production/_ext/1472/RTC.o
 .mdebug.abi32  0xa0003294        0x0 build/default_-_avec_Bootloader/production/_ext/1472/0_SparkBox.o
 .mdebug.abi32  0xa0003294        0x0 build/default_-_avec_Bootloader/production/_ext/1472/Lcd.o
 .mdebug.abi32  0xa0003294        0x0 build/default_-_avec_Bootloader/production/_ext/1472/Analogique.o
 .mdebug.abi32  0xa0003294        0x0 build/default_-_avec_Bootloader/production/_ext/1472/Evse.o
 .mdebug.abi32  0xa0003294        0x0 build/default_-_avec_Bootloader/production/_ext/1472/i2c.o
 .mdebug.abi32  0xa0003294        0x0 build/default_-_avec_Bootloader/production/_ext/1472/BD_sst.o
 .mdebug.abi32  0xa0003294        0x0 c:/program files (x86)/microchip/xc32/v1.31/bin/../lib/gcc/pic32mx/4.5.2/../../../../pic32mx/lib/size\libmchp_peripheral_32MX695F512L.a(soft_reset_lib.o)
 .mdebug.abi32  0xa0003294        0x0 c:/program files (x86)/microchip/xc32/v1.31/bin/../lib/gcc/pic32mx/4.5.2/../../../../pic32mx/lib/size\libmchp_peripheral_32MX695F512L.a(pcache.o)
 .mdebug.abi32  0xa0003294        0x0 c:/program files (x86)/microchip/xc32/v1.31/bin/../lib/gcc/pic32mx/4.5.2/../../../../pic32mx/lib/size\libmchp_peripheral_32MX695F512L.a(int_disable_interrupts_lib.o)
 .mdebug.abi32  0xa0003294        0x0 c:/program files (x86)/microchip/xc32/v1.31/bin/../lib/gcc/pic32mx/4.5.2/../../../../pic32mx/lib/size\libmchp_peripheral_32MX695F512L.a(int_restore_interrupts_lib.o)
 .mdebug.abi32  0xa0003294        0x0 c:/program files (x86)/microchip/xc32/v1.31/bin/../lib/gcc/pic32mx/4.5.2/../../../../pic32mx/lib/size\libmchp_peripheral_32MX695F512L.a(int_enable_mv_int_lib.o)
 .mdebug.abi32  0xa0003294        0x0 c:/program files (x86)/microchip/xc32/v1.31/bin/../lib/gcc/pic32mx/4.5.2/../../../../pic32mx/lib/size\libmchp_peripheral_32MX695F512L.a(int_tbl_lib.o)
 .mdebug.abi32  0xa0003294        0x0 c:/program files (x86)/microchip/xc32/v1.31/bin/../lib/gcc/pic32mx/4.5.2/../../../../pic32mx/lib/size\libmchp_peripheral_32MX695F512L.a(uart_lib.o)
 .mdebug.abi32  0xa0003294        0x0 c:/program files (x86)/microchip/xc32/v1.31/bin/../lib/gcc/pic32mx/4.5.2/../../../../pic32mx/lib/size\libmchp_peripheral_32MX695F512L.a(I2CAcknowledgeByte.o)
 .mdebug.abi32  0xa0003294        0x0 c:/program files (x86)/microchip/xc32/v1.31/bin/../lib/gcc/pic32mx/4.5.2/../../../../pic32mx/lib/size\libmchp_peripheral_32MX695F512L.a(I2CBusIsIdle.o)
 .mdebug.abi32  0xa0003294        0x0 c:/program files (x86)/microchip/xc32/v1.31/bin/../lib/gcc/pic32mx/4.5.2/../../../../pic32mx/lib/size\libmchp_peripheral_32MX695F512L.a(I2CByteWasAcknowledged.o)
 .mdebug.abi32  0xa0003294        0x0 c:/program files (x86)/microchip/xc32/v1.31/bin/../lib/gcc/pic32mx/4.5.2/../../../../pic32mx/lib/size\libmchp_peripheral_32MX695F512L.a(I2CEnable.o)
 .mdebug.abi32  0xa0003294        0x0 c:/program files (x86)/microchip/xc32/v1.31/bin/../lib/gcc/pic32mx/4.5.2/../../../../pic32mx/lib/size\libmchp_peripheral_32MX695F512L.a(I2CGetByte.o)
 .mdebug.abi32  0xa0003294        0x0 c:/program files (x86)/microchip/xc32/v1.31/bin/../lib/gcc/pic32mx/4.5.2/../../../../pic32mx/lib/size\libmchp_peripheral_32MX695F512L.a(I2CGetStatus.o)
 .mdebug.abi32  0xa0003294        0x0 c:/program files (x86)/microchip/xc32/v1.31/bin/../lib/gcc/pic32mx/4.5.2/../../../../pic32mx/lib/size\libmchp_peripheral_32MX695F512L.a(I2CReceivedDataIsAvailable.o)
 .mdebug.abi32  0xa0003294        0x0 c:/program files (x86)/microchip/xc32/v1.31/bin/../lib/gcc/pic32mx/4.5.2/../../../../pic32mx/lib/size\libmchp_peripheral_32MX695F512L.a(I2CReceiverEnable.o)
 .mdebug.abi32  0xa0003294        0x0 c:/program files (x86)/microchip/xc32/v1.31/bin/../lib/gcc/pic32mx/4.5.2/../../../../pic32mx/lib/size\libmchp_peripheral_32MX695F512L.a(I2CRepeatStart.o)
 .mdebug.abi32  0xa0003294        0x0 c:/program files (x86)/microchip/xc32/v1.31/bin/../lib/gcc/pic32mx/4.5.2/../../../../pic32mx/lib/size\libmchp_peripheral_32MX695F512L.a(I2CSendByte.o)
 .mdebug.abi32  0xa0003294        0x0 c:/program files (x86)/microchip/xc32/v1.31/bin/../lib/gcc/pic32mx/4.5.2/../../../../pic32mx/lib/size\libmchp_peripheral_32MX695F512L.a(I2CSetFrequency.o)
 .mdebug.abi32  0xa0003294        0x0 c:/program files (x86)/microchip/xc32/v1.31/bin/../lib/gcc/pic32mx/4.5.2/../../../../pic32mx/lib/size\libmchp_peripheral_32MX695F512L.a(I2CStart.o)
 .mdebug.abi32  0xa0003294        0x0 c:/program files (x86)/microchip/xc32/v1.31/bin/../lib/gcc/pic32mx/4.5.2/../../../../pic32mx/lib/size\libmchp_peripheral_32MX695F512L.a(I2CStop.o)
 .mdebug.abi32  0xa0003294        0x0 c:/program files (x86)/microchip/xc32/v1.31/bin/../lib/gcc/pic32mx/4.5.2/../../../../pic32mx/lib/size\libmchp_peripheral_32MX695F512L.a(I2CTransmissionHasCompleted.o)
 .mdebug.abi32  0xa0003294        0x0 c:/program files (x86)/microchip/xc32/v1.31/bin/../lib/gcc/pic32mx/4.5.2/../../../../pic32mx/lib/size\libmchp_peripheral_32MX695F512L.a(I2CTransmitterIsReady.o)
 .mdebug.abi32  0xa0003294        0x0 c:/program files (x86)/microchip/xc32/v1.31/bin/../lib/gcc/pic32mx/4.5.2/../../../../pic32mx/lib/size\libmchp_peripheral_32MX695F512L.a(int_enable_interrupts_lib.o)
 .mdebug.abi32  0xa0003294        0x0 c:/program files (x86)/microchip/xc32/v1.31/bin/../lib/gcc/pic32mx/4.5.2/../../../../pic32mx/lib/size\libmchp_peripheral_32MX695F512L.a(I2CPrivate.o)
 .mdebug.abi32  0xa0003294        0x0 c:/program files (x86)/microchip/xc32/v1.31/bin/../lib/gcc/pic32mx/4.5.2/size\libgcc.a(_divdi3.o)
 .mdebug.abi32  0xa0003294        0x0 c:/program files (x86)/microchip/xc32/v1.31/bin/../lib/gcc/pic32mx/4.5.2/size\libgcc.a(_udivdi3.o)
 .mdebug.abi32  0xa0003294        0x0 c:/program files (x86)/microchip/xc32/v1.31/bin/../lib/gcc/pic32mx/4.5.2/size\libgcc.a(floatunsisf.o)
 .mdebug.abi32  0xa0003294        0x0 c:/program files (x86)/microchip/xc32/v1.31/bin/../lib/gcc/pic32mx/4.5.2/../../../../pic32mx/lib/size\libpic32.a(default-bootstrap-exception-handler.o)
 .mdebug.abi32  0xa0003294        0x0 c:/program files (x86)/microchip/xc32/v1.31/bin/../lib/gcc/pic32mx/4.5.2/../../../../pic32mx/lib/size\libpic32.a(default-on-reset.o)
 .mdebug.abi32  0xa0003294        0x0 c:/program files (x86)/microchip/xc32/v1.31/bin/../lib/gcc/pic32mx/4.5.2/../../../../pic32mx/lib/size\libpic32.a(default-on-bootstrap.o)
 .mdebug.abi32  0xa0003294        0x0 c:/program files (x86)/microchip/xc32/v1.31/bin/../lib/gcc/pic32mx/4.5.2/../../../../pic32mx/lib/size\libm.a(w_sqrtf.o)
 .mdebug.abi32  0xa0003294        0x0 c:/program files (x86)/microchip/xc32/v1.31/bin/../lib/gcc/pic32mx/4.5.2/../../../../pic32mx/lib/size\libm.a(s_lib_ver.o)
 .mdebug.abi32  0xa0003294        0x0 c:/program files (x86)/microchip/xc32/v1.31/bin/../lib/gcc/pic32mx/4.5.2/../../../../pic32mx/lib/size\libpic32.a(errno.o)
 .mdebug.abi32  0xa0003294        0x0 c:/program files (x86)/microchip/xc32/v1.31/bin/../lib/gcc/pic32mx/4.5.2/../../../../pic32mx/lib/size\libc.a(atoi.o)
 .mdebug.abi32  0xa0003294        0x0 c:/program files (x86)/microchip/xc32/v1.31/bin/../lib/gcc/pic32mx/4.5.2/../../../../pic32mx/lib/size\libc.a(atol.o)
 .mdebug.abi32  0xa0003294        0x0 c:/program files (x86)/microchip/xc32/v1.31/bin/../lib/gcc/pic32mx/4.5.2/../../../../pic32mx/lib/size\libc.a(ctype.o)
 .mdebug.abi32  0xa0003294        0x0 c:/program files (x86)/microchip/xc32/v1.31/bin/../lib/gcc/pic32mx/4.5.2/../../../../pic32mx/lib/size\libc.a(ctypef.o)
 .mdebug.abi32  0xa0003294        0x0 c:/program files (x86)/microchip/xc32/v1.31/bin/../lib/gcc/pic32mx/4.5.2/../../../../pic32mx/lib/size\libc.a(ltoa.o)
 .mdebug.abi32  0xa0003294        0x0 c:/program files (x86)/microchip/xc32/v1.31/bin/../lib/gcc/pic32mx/4.5.2/../../../../pic32mx/lib/size\libc.a(mktime.o)
 .mdebug.abi32  0xa0003294        0x0 c:/program files (x86)/microchip/xc32/v1.31/bin/../lib/gcc/pic32mx/4.5.2/../../../../pic32mx/lib/size\libc.a(strcat.o)
 .mdebug.abi32  0xa0003294        0x0 c:/program files (x86)/microchip/xc32/v1.31/bin/../lib/gcc/pic32mx/4.5.2/../../../../pic32mx/lib/size\libc.a(strchr.o)
 .mdebug.abi32  0xa0003294        0x0 c:/program files (x86)/microchip/xc32/v1.31/bin/../lib/gcc/pic32mx/4.5.2/../../../../pic32mx/lib/size\libc.a(strncmp.o)
 .mdebug.abi32  0xa0003294        0x0 c:/program files (x86)/microchip/xc32/v1.31/bin/../lib/gcc/pic32mx/4.5.2/../../../../pic32mx/lib/size\libc.a(strncpy.o)
 .mdebug.abi32  0xa0003294        0x0 c:/program files (x86)/microchip/xc32/v1.31/bin/../lib/gcc/pic32mx/4.5.2/../../../../pic32mx/lib/size\libc.a(strstr.o)
 .mdebug.abi32  0xa0003294        0x0 c:/program files (x86)/microchip/xc32/v1.31/bin/../lib/gcc/pic32mx/4.5.2/../../../../pic32mx/lib/size\libc.a(sprintf_cdnopsuxX.eo)
 .mdebug.abi32  0xa0003294        0x0 c:/program files (x86)/microchip/xc32/v1.31/bin/../lib/gcc/pic32mx/4.5.2/../../../../pic32mx/lib/size\libc.a(doprnt_cdnopsuxX.eo)
 .mdebug.abi32  0xa0003294        0x0 c:/program files (x86)/microchip/xc32/v1.31/bin/../lib/gcc/pic32mx/4.5.2/../../../../pic32mx/lib/size\libc.a(_fputc_simple.o)
 .mdebug.abi32  0xa0003294        0x0 c:/program files (x86)/microchip/xc32/v1.31/bin/../lib/gcc/pic32mx/4.5.2/../../../../pic32mx/lib/size\libc.a(_iob.o)
 .mdebug.abi32  0xa0003294        0x0 c:/program files (x86)/microchip/xc32/v1.31/bin/../lib/gcc/pic32mx/4.5.2/../../../../pic32mx/lib/size\libc.a(_flsbuf_simple.o)
 .mdebug.abi32  0xa0003294        0x0 c:/program files (x86)/microchip/xc32/v1.31/bin/../lib/gcc/pic32mx/4.5.2/../../../../pic32mx/lib/size\libpic32.a(write.o)
 .mdebug.abi32  0xa0003294        0x0 c:/program files (x86)/microchip/xc32/v1.31/bin/../lib/gcc/pic32mx/4.5.2/../../../../pic32mx/lib/size\libpic32.a(_mon_putc.o)
 .mdebug.abi32  0xa0003294        0x0 c:/program files (x86)/microchip/xc32/v1.31/bin/../lib/gcc/pic32mx/4.5.2/../../../../pic32mx/lib/size\libpic32.a(xc32_uart.o)
 .mdebug.abi32  0xa0003294        0x0 c:/program files (x86)/microchip/xc32/v1.31/bin/../lib/gcc/pic32mx/4.5.2/size\libgcc.a(_lshrdi3.o)
 .mdebug.abi32  0xa0003294        0x0 c:/program files (x86)/microchip/xc32/v1.31/bin/../lib/gcc/pic32mx/4.5.2/size\libgcc.a(_umoddi3.o)

.mdebug.abiN32
 *(.mdebug.abiN32)

.mdebug.abi64
 *(.mdebug.abi64)

.mdebug.abiO64
 *(.mdebug.abiO64)

.mdebug.eabi32
 *(.mdebug.eabi32)

.mdebug.eabi64
 *(.mdebug.eabi64)

.gcc_compiled_long32
 *(.gcc_compiled_long32)

.gcc_compiled_long64
 *(.gcc_compiled_long64)

.stab
 *(.stab)

.stabstr
 *(.stabstr)

.stab.excl
 *(.stab.excl)

.stab.exclstr
 *(.stab.exclstr)

.stab.index
 *(.stab.index)

.stab.indexstr
 *(.stab.indexstr)

.comment        0x00000000      0x208
 *(.comment)
 .comment       0x00000000       0x3c build/default_-_avec_Bootloader/production/_ext/1472/HTTP_Teleinfo.o
                                 0x3d (size before relaxing)
 .comment       0x00000000       0x3d build/default_-_avec_Bootloader/production/_ext/1472/HTTP_Reseau.o
 .comment       0x00000000       0x3d build/default_-_avec_Bootloader/production/_ext/1472/HTTP_Mynetmemo.o
 .comment       0x00000000       0x3d build/default_-_avec_Bootloader/production/_ext/1472/HTTP_Password.o
 .comment       0x00000000       0x3d build/default_-_avec_Bootloader/production/_ext/1472/HTTP_log.o
 .comment       0x00000000       0x3d build/default_-_avec_Bootloader/production/_ext/1472/HTTP_cmd.o
 .comment       0x00000000       0x3d build/default_-_avec_Bootloader/production/_ext/1472/HTTP_Parametres.o
 .comment       0x00000000       0x3d build/default_-_avec_Bootloader/production/_ext/1472/HTTP_Donnees.o
 .comment       0x00000000       0x3d build/default_-_avec_Bootloader/production/_ext/1472/HTTP_Index.o
 .comment       0x00000000       0x3d build/default_-_avec_Bootloader/production/_ext/1472/HTTP_ADTEK.o
 .comment       0x00000000       0x3d build/default_-_avec_Bootloader/production/_ext/1295770447/Announce.o
 .comment       0x00000000       0x3d build/default_-_avec_Bootloader/production/_ext/1295770447/ARP.o
 .comment       0x00000000       0x3d build/default_-_avec_Bootloader/production/_ext/1295770447/Delay.o
 .comment       0x00000000       0x3d build/default_-_avec_Bootloader/production/_ext/1295770447/DHCP.o
 .comment       0x00000000       0x3d build/default_-_avec_Bootloader/production/_ext/1295770447/DHCPs.o
 .comment       0x00000000       0x3d build/default_-_avec_Bootloader/production/_ext/1295770447/DNS.o
 .comment       0x00000000       0x3d build/default_-_avec_Bootloader/production/_ext/1295770447/DynDNS.o
 .comment       0x00000000       0x3d build/default_-_avec_Bootloader/production/_ext/1295770447/FTP.o
 .comment       0x00000000       0x3d build/default_-_avec_Bootloader/production/_ext/1295770447/Hashes.o
 .comment       0x00000000       0x3d build/default_-_avec_Bootloader/production/_ext/1295770447/Helpers.o
 .comment       0x00000000       0x3d build/default_-_avec_Bootloader/production/_ext/1295770447/HTTP2.o
 .comment       0x00000000       0x3d build/default_-_avec_Bootloader/production/_ext/1295770447/ICMP.o
 .comment       0x00000000       0x3d build/default_-_avec_Bootloader/production/_ext/1295770447/IP.o
 .comment       0x00000000       0x3d build/default_-_avec_Bootloader/production/_ext/1295770447/MPFS2.o
 .comment       0x00000000       0x3d build/default_-_avec_Bootloader/production/_ext/1295770447/NBNS.o
 .comment       0x00000000       0x3d build/default_-_avec_Bootloader/production/_ext/1295770447/SMTP.o
 .comment       0x00000000       0x3d build/default_-_avec_Bootloader/production/_ext/1295770447/SNMP.o
 .comment       0x00000000       0x3d build/default_-_avec_Bootloader/production/_ext/1295770447/SNTP.o
 .comment       0x00000000       0x3d build/default_-_avec_Bootloader/production/_ext/1295770447/SPIEEPROM.o
 .comment       0x00000000       0x3d build/default_-_avec_Bootloader/production/_ext/1295770447/SPIFlash.o
 .comment       0x00000000       0x3d build/default_-_avec_Bootloader/production/_ext/1295770447/SPIRAM.o
 .comment       0x00000000       0x3d build/default_-_avec_Bootloader/production/_ext/1295770447/StackTsk.o
 .comment       0x00000000       0x3d build/default_-_avec_Bootloader/production/_ext/1295770447/TCP.o
 .comment       0x00000000       0x3d build/default_-_avec_Bootloader/production/_ext/1295770447/Telnet.o
 .comment       0x00000000       0x3d build/default_-_avec_Bootloader/production/_ext/1295770447/TFTPc.o
 .comment       0x00000000       0x3d build/default_-_avec_Bootloader/production/_ext/1295770447/Tick.o
 .comment       0x00000000       0x3d build/default_-_avec_Bootloader/production/_ext/1295770447/UART.o
 .comment       0x00000000       0x3d build/default_-_avec_Bootloader/production/_ext/1295770447/UDP.o
 .comment       0x00000000       0x3d build/default_-_avec_Bootloader/production/_ext/1472/MPFSImg2.o
 .comment       0x00000000       0x3d build/default_-_avec_Bootloader/production/_ext/1295770447/Random.o
 .comment       0x00000000       0x3d build/default_-_avec_Bootloader/production/_ext/1295770447/RSA.o
 .comment       0x00000000       0x3d build/default_-_avec_Bootloader/production/_ext/1295770447/SSL.o
 .comment       0x00000000       0x3d build/default_-_avec_Bootloader/production/_ext/1295770447/ARCFOUR.o
 .comment       0x00000000       0x3d build/default_-_avec_Bootloader/production/_ext/1295770447/BigInt.o
 .comment       0x00000000       0x3d build/default_-_avec_Bootloader/production/_ext/1295770447/AutoIP.o
 .comment       0x00000000       0x3d build/default_-_avec_Bootloader/production/_ext/1295770447/DNSs.o
 .comment       0x00000000       0x3d build/default_-_avec_Bootloader/production/_ext/1295770447/ENCX24J600.o
 .comment       0x00000000       0x3d build/default_-_avec_Bootloader/production/_ext/1295770447/ETHPIC32ExtPhy.o
 .comment       0x00000000       0x3d build/default_-_avec_Bootloader/production/_ext/1295770447/ETHPIC32ExtPhyDP83848.o
 .comment       0x00000000       0x3d build/default_-_avec_Bootloader/production/_ext/1295770447/ETHPIC32IntMac.o
 .comment       0x00000000       0x3d build/default_-_avec_Bootloader/production/_ext/1472/rs232.o
 .comment       0x00000000       0x3d build/default_-_avec_Bootloader/production/_ext/1472/Mynetmemo.o
 .comment       0x00000000       0x3d build/default_-_avec_Bootloader/production/_ext/1472/Eeprom_i2c.o
 .comment       0x00000000       0x3d build/default_-_avec_Bootloader/production/_ext/1472/Temperature.o
 .comment       0x00000000       0x3d build/default_-_avec_Bootloader/production/_ext/1472/Teleinfo.o
 .comment       0x00000000       0x3d build/default_-_avec_Bootloader/production/_ext/1472/log.o
 .comment       0x00000000       0x3d build/default_-_avec_Bootloader/production/_ext/1472/SSLCert.o
 .comment       0x00000000       0x3d build/default_-_avec_Bootloader/production/_ext/1472/divers.o
 .comment       0x00000000       0x3d build/default_-_avec_Bootloader/production/_ext/1472/SST25VF016.o
 .comment       0x00000000       0x3d build/default_-_avec_Bootloader/production/_ext/1472/drv_spi.o
 .comment       0x00000000       0x3d build/default_-_avec_Bootloader/production/_ext/1472/mcp7941.o
 .comment       0x00000000       0x3d build/default_-_avec_Bootloader/production/_ext/1472/RTC.o
 .comment       0x00000000       0x3d build/default_-_avec_Bootloader/production/_ext/1472/0_SparkBox.o
 .comment       0x00000000       0x3d build/default_-_avec_Bootloader/production/_ext/1472/Lcd.o
 .comment       0x00000000       0x3d build/default_-_avec_Bootloader/production/_ext/1472/Analogique.o
 .comment       0x00000000       0x3d build/default_-_avec_Bootloader/production/_ext/1472/Evse.o
 .comment       0x00000000       0x3d build/default_-_avec_Bootloader/production/_ext/1472/i2c.o
 .comment       0x00000000       0x3d build/default_-_avec_Bootloader/production/_ext/1472/BD_sst.o
 .comment       0x0000003c       0x3c c:/program files (x86)/microchip/xc32/v1.31/bin/../lib/gcc/pic32mx/4.5.2/../../../../pic32mx/lib/size\libmchp_peripheral_32MX695F512L.a(soft_reset_lib.o)
                                 0x3d (size before relaxing)
 .comment       0x00000000       0x3d c:/program files (x86)/microchip/xc32/v1.31/bin/../lib/gcc/pic32mx/4.5.2/../../../../pic32mx/lib/size\libmchp_peripheral_32MX695F512L.a(pcache.o)
 .comment       0x00000000       0x3d c:/program files (x86)/microchip/xc32/v1.31/bin/../lib/gcc/pic32mx/4.5.2/../../../../pic32mx/lib/size\libmchp_peripheral_32MX695F512L.a(int_disable_interrupts_lib.o)
 .comment       0x00000000       0x3d c:/program files (x86)/microchip/xc32/v1.31/bin/../lib/gcc/pic32mx/4.5.2/../../../../pic32mx/lib/size\libmchp_peripheral_32MX695F512L.a(int_restore_interrupts_lib.o)
 .comment       0x00000000       0x3d c:/program files (x86)/microchip/xc32/v1.31/bin/../lib/gcc/pic32mx/4.5.2/../../../../pic32mx/lib/size\libmchp_peripheral_32MX695F512L.a(int_enable_mv_int_lib.o)
 .comment       0x00000000       0x3d c:/program files (x86)/microchip/xc32/v1.31/bin/../lib/gcc/pic32mx/4.5.2/../../../../pic32mx/lib/size\libmchp_peripheral_32MX695F512L.a(int_tbl_lib.o)
 .comment       0x00000000       0x3d c:/program files (x86)/microchip/xc32/v1.31/bin/../lib/gcc/pic32mx/4.5.2/../../../../pic32mx/lib/size\libmchp_peripheral_32MX695F512L.a(uart_lib.o)
 .comment       0x00000000       0x3d c:/program files (x86)/microchip/xc32/v1.31/bin/../lib/gcc/pic32mx/4.5.2/../../../../pic32mx/lib/size\libmchp_peripheral_32MX695F512L.a(I2CAcknowledgeByte.o)
 .comment       0x00000000       0x3d c:/program files (x86)/microchip/xc32/v1.31/bin/../lib/gcc/pic32mx/4.5.2/../../../../pic32mx/lib/size\libmchp_peripheral_32MX695F512L.a(I2CBusIsIdle.o)
 .comment       0x00000000       0x3d c:/program files (x86)/microchip/xc32/v1.31/bin/../lib/gcc/pic32mx/4.5.2/../../../../pic32mx/lib/size\libmchp_peripheral_32MX695F512L.a(I2CByteWasAcknowledged.o)
 .comment       0x00000000       0x3d c:/program files (x86)/microchip/xc32/v1.31/bin/../lib/gcc/pic32mx/4.5.2/../../../../pic32mx/lib/size\libmchp_peripheral_32MX695F512L.a(I2CEnable.o)
 .comment       0x00000000       0x3d c:/program files (x86)/microchip/xc32/v1.31/bin/../lib/gcc/pic32mx/4.5.2/../../../../pic32mx/lib/size\libmchp_peripheral_32MX695F512L.a(I2CGetByte.o)
 .comment       0x00000000       0x3d c:/program files (x86)/microchip/xc32/v1.31/bin/../lib/gcc/pic32mx/4.5.2/../../../../pic32mx/lib/size\libmchp_peripheral_32MX695F512L.a(I2CGetStatus.o)
 .comment       0x00000000       0x3d c:/program files (x86)/microchip/xc32/v1.31/bin/../lib/gcc/pic32mx/4.5.2/../../../../pic32mx/lib/size\libmchp_peripheral_32MX695F512L.a(I2CReceivedDataIsAvailable.o)
 .comment       0x00000000       0x3d c:/program files (x86)/microchip/xc32/v1.31/bin/../lib/gcc/pic32mx/4.5.2/../../../../pic32mx/lib/size\libmchp_peripheral_32MX695F512L.a(I2CReceiverEnable.o)
 .comment       0x00000000       0x3d c:/program files (x86)/microchip/xc32/v1.31/bin/../lib/gcc/pic32mx/4.5.2/../../../../pic32mx/lib/size\libmchp_peripheral_32MX695F512L.a(I2CRepeatStart.o)
 .comment       0x00000000       0x3d c:/program files (x86)/microchip/xc32/v1.31/bin/../lib/gcc/pic32mx/4.5.2/../../../../pic32mx/lib/size\libmchp_peripheral_32MX695F512L.a(I2CSendByte.o)
 .comment       0x00000000       0x3d c:/program files (x86)/microchip/xc32/v1.31/bin/../lib/gcc/pic32mx/4.5.2/../../../../pic32mx/lib/size\libmchp_peripheral_32MX695F512L.a(I2CSetFrequency.o)
 .comment       0x00000000       0x3d c:/program files (x86)/microchip/xc32/v1.31/bin/../lib/gcc/pic32mx/4.5.2/../../../../pic32mx/lib/size\libmchp_peripheral_32MX695F512L.a(I2CStart.o)
 .comment       0x00000000       0x3d c:/program files (x86)/microchip/xc32/v1.31/bin/../lib/gcc/pic32mx/4.5.2/../../../../pic32mx/lib/size\libmchp_peripheral_32MX695F512L.a(I2CStop.o)
 .comment       0x00000000       0x3d c:/program files (x86)/microchip/xc32/v1.31/bin/../lib/gcc/pic32mx/4.5.2/../../../../pic32mx/lib/size\libmchp_peripheral_32MX695F512L.a(I2CTransmissionHasCompleted.o)
 .comment       0x00000000       0x3d c:/program files (x86)/microchip/xc32/v1.31/bin/../lib/gcc/pic32mx/4.5.2/../../../../pic32mx/lib/size\libmchp_peripheral_32MX695F512L.a(I2CTransmitterIsReady.o)
 .comment       0x00000000       0x3d c:/program files (x86)/microchip/xc32/v1.31/bin/../lib/gcc/pic32mx/4.5.2/../../../../pic32mx/lib/size\libmchp_peripheral_32MX695F512L.a(int_enable_interrupts_lib.o)
 .comment       0x00000000       0x3d c:/program files (x86)/microchip/xc32/v1.31/bin/../lib/gcc/pic32mx/4.5.2/../../../../pic32mx/lib/size\libmchp_peripheral_32MX695F512L.a(I2CPrivate.o)
 .comment       0x00000078       0x3c c:/program files (x86)/microchip/xc32/v1.31/bin/../lib/gcc/pic32mx/4.5.2/size\libgcc.a(_divdi3.o)
                                 0x3d (size before relaxing)
 .comment       0x00000000       0x3d c:/program files (x86)/microchip/xc32/v1.31/bin/../lib/gcc/pic32mx/4.5.2/size\libgcc.a(_udivdi3.o)
 .comment       0x00000000       0x3d c:/program files (x86)/microchip/xc32/v1.31/bin/../lib/gcc/pic32mx/4.5.2/size\libgcc.a(floatunsisf.o)
 .comment       0x000000b4       0x18 c:/program files (x86)/microchip/xc32/v1.31/bin/../lib/gcc/pic32mx/4.5.2/../../../../pic32mx/lib/size\libpic32.a(memcmp.o)
                                 0x19 (size before relaxing)
 .comment       0x000000cc       0x18 c:/program files (x86)/microchip/xc32/v1.31/bin/../lib/gcc/pic32mx/4.5.2/../../../../pic32mx/lib/size\libpic32.a(memset.o)
                                 0x19 (size before relaxing)
 .comment       0x000000e4       0x55 c:/program files (x86)/microchip/xc32/v1.31/bin/../lib/gcc/pic32mx/4.5.2/../../../../pic32mx/lib/size\libpic32.a(strcmp.o)
                                 0x56 (size before relaxing)
 .comment       0x00000139       0x19 c:/program files (x86)/microchip/xc32/v1.31/bin/../lib/gcc/pic32mx/4.5.2/../../../../pic32mx/lib/size\libpic32.a(strcpy.o)
                                 0x1a (size before relaxing)
 .comment       0x00000152       0x19 c:/program files (x86)/microchip/xc32/v1.31/bin/../lib/gcc/pic32mx/4.5.2/../../../../pic32mx/lib/size\libpic32.a(strlen.o)
                                 0x1a (size before relaxing)
 .comment       0x00000000       0x3d c:/program files (x86)/microchip/xc32/v1.31/bin/../lib/gcc/pic32mx/4.5.2/../../../../pic32mx/lib/size\libpic32.a(default-bootstrap-exception-handler.o)
 .comment       0x00000000       0x3d c:/program files (x86)/microchip/xc32/v1.31/bin/../lib/gcc/pic32mx/4.5.2/../../../../pic32mx/lib/size\libpic32.a(default-on-reset.o)
 .comment       0x00000000       0x3d c:/program files (x86)/microchip/xc32/v1.31/bin/../lib/gcc/pic32mx/4.5.2/../../../../pic32mx/lib/size\libpic32.a(default-on-bootstrap.o)
 .comment       0x00000000       0x3d c:/program files (x86)/microchip/xc32/v1.31/bin/../lib/gcc/pic32mx/4.5.2/../../../../pic32mx/lib/size\libm.a(w_sqrtf.o)
 .comment       0x00000000       0x3d c:/program files (x86)/microchip/xc32/v1.31/bin/../lib/gcc/pic32mx/4.5.2/../../../../pic32mx/lib/size\libm.a(s_lib_ver.o)
 .comment       0x00000000       0x3d c:/program files (x86)/microchip/xc32/v1.31/bin/../lib/gcc/pic32mx/4.5.2/../../../../pic32mx/lib/size\libpic32.a(errno.o)
 .comment       0x00000000       0x3d c:/program files (x86)/microchip/xc32/v1.31/bin/../lib/gcc/pic32mx/4.5.2/../../../../pic32mx/lib/size\libc.a(atoi.o)
 .comment       0x00000000       0x3d c:/program files (x86)/microchip/xc32/v1.31/bin/../lib/gcc/pic32mx/4.5.2/../../../../pic32mx/lib/size\libc.a(atol.o)
 .comment       0x0000016b       0x4e c:/program files (x86)/microchip/xc32/v1.31/bin/../lib/gcc/pic32mx/4.5.2/../../../../pic32mx/lib/size\libc.a(ctype.o)
                                 0x8b (size before relaxing)
 .comment       0x000001b9       0x4f c:/program files (x86)/microchip/xc32/v1.31/bin/../lib/gcc/pic32mx/4.5.2/../../../../pic32mx/lib/size\libc.a(ctypef.o)
                                 0x8c (size before relaxing)
 .comment       0x00000000       0x3d c:/program files (x86)/microchip/xc32/v1.31/bin/../lib/gcc/pic32mx/4.5.2/../../../../pic32mx/lib/size\libc.a(ltoa.o)
 .comment       0x00000000       0x3d c:/program files (x86)/microchip/xc32/v1.31/bin/../lib/gcc/pic32mx/4.5.2/../../../../pic32mx/lib/size\libc.a(mktime.o)
 .comment       0x00000000       0x3d c:/program files (x86)/microchip/xc32/v1.31/bin/../lib/gcc/pic32mx/4.5.2/../../../../pic32mx/lib/size\libc.a(strcat.o)
 .comment       0x00000000       0x3d c:/program files (x86)/microchip/xc32/v1.31/bin/../lib/gcc/pic32mx/4.5.2/../../../../pic32mx/lib/size\libc.a(strchr.o)
 .comment       0x00000000       0x3d c:/program files (x86)/microchip/xc32/v1.31/bin/../lib/gcc/pic32mx/4.5.2/../../../../pic32mx/lib/size\libc.a(strncmp.o)
 .comment       0x00000000       0x3d c:/program files (x86)/microchip/xc32/v1.31/bin/../lib/gcc/pic32mx/4.5.2/../../../../pic32mx/lib/size\libc.a(strncpy.o)
 .comment       0x00000000       0x3d c:/program files (x86)/microchip/xc32/v1.31/bin/../lib/gcc/pic32mx/4.5.2/../../../../pic32mx/lib/size\libc.a(strstr.o)
 .comment       0x00000000       0x3d c:/program files (x86)/microchip/xc32/v1.31/bin/../lib/gcc/pic32mx/4.5.2/../../../../pic32mx/lib/size\libc.a(sprintf_cdnopsuxX.eo)
 .comment       0x00000000       0x3d c:/program files (x86)/microchip/xc32/v1.31/bin/../lib/gcc/pic32mx/4.5.2/../../../../pic32mx/lib/size\libc.a(doprnt_cdnopsuxX.eo)
 .comment       0x00000000       0x3d c:/program files (x86)/microchip/xc32/v1.31/bin/../lib/gcc/pic32mx/4.5.2/../../../../pic32mx/lib/size\libc.a(_fputc_simple.o)
 .comment       0x00000000       0x3d c:/program files (x86)/microchip/xc32/v1.31/bin/../lib/gcc/pic32mx/4.5.2/../../../../pic32mx/lib/size\libc.a(_iob.o)
 .comment       0x00000000       0x3d c:/program files (x86)/microchip/xc32/v1.31/bin/../lib/gcc/pic32mx/4.5.2/../../../../pic32mx/lib/size\libc.a(_flsbuf_simple.o)
 .comment       0x00000000       0x3d c:/program files (x86)/microchip/xc32/v1.31/bin/../lib/gcc/pic32mx/4.5.2/../../../../pic32mx/lib/size\libpic32.a(write.o)
 .comment       0x00000000       0x3d c:/program files (x86)/microchip/xc32/v1.31/bin/../lib/gcc/pic32mx/4.5.2/../../../../pic32mx/lib/size\libpic32.a(_mon_putc.o)
 .comment       0x00000000       0x3d c:/program files (x86)/microchip/xc32/v1.31/bin/../lib/gcc/pic32mx/4.5.2/../../../../pic32mx/lib/size\libpic32.a(xc32_uart.o)
 .comment       0x00000000       0x3d c:/program files (x86)/microchip/xc32/v1.31/bin/../lib/gcc/pic32mx/4.5.2/size\libgcc.a(_lshrdi3.o)
 .comment       0x00000000       0x3d c:/program files (x86)/microchip/xc32/v1.31/bin/../lib/gcc/pic32mx/4.5.2/size\libgcc.a(_umoddi3.o)

.debug
 *(.debug)

.line
 *(.line)

.debug_srcinfo
 *(.debug_srcinfo)

.debug_sfnames
 *(.debug_sfnames)

.debug_aranges  0x00000000      0xd18
 *(.debug_aranges)
 .debug_aranges
                0x00000000       0x20 build/default_-_avec_Bootloader/production/_ext/1472/HTTP_Teleinfo.o
 .debug_aranges
                0x00000020       0x20 build/default_-_avec_Bootloader/production/_ext/1472/HTTP_Reseau.o
 .debug_aranges
                0x00000040       0x20 build/default_-_avec_Bootloader/production/_ext/1472/HTTP_Mynetmemo.o
 .debug_aranges
                0x00000060       0x20 build/default_-_avec_Bootloader/production/_ext/1472/HTTP_Password.o
 .debug_aranges
                0x00000080       0x20 build/default_-_avec_Bootloader/production/_ext/1472/HTTP_log.o
 .debug_aranges
                0x000000a0       0x20 build/default_-_avec_Bootloader/production/_ext/1472/HTTP_cmd.o
 .debug_aranges
                0x000000c0       0x20 build/default_-_avec_Bootloader/production/_ext/1472/HTTP_Parametres.o
 .debug_aranges
                0x000000e0       0x20 build/default_-_avec_Bootloader/production/_ext/1472/HTTP_Donnees.o
 .debug_aranges
                0x00000100       0x20 build/default_-_avec_Bootloader/production/_ext/1472/HTTP_Index.o
 .debug_aranges
                0x00000120       0x20 build/default_-_avec_Bootloader/production/_ext/1472/HTTP_ADTEK.o
 .debug_aranges
                0x00000140       0x20 build/default_-_avec_Bootloader/production/_ext/1295770447/Announce.o
 .debug_aranges
                0x00000160       0x20 build/default_-_avec_Bootloader/production/_ext/1295770447/ARP.o
 .debug_aranges
                0x00000180       0x20 build/default_-_avec_Bootloader/production/_ext/1295770447/Delay.o
 .debug_aranges
                0x000001a0       0x20 build/default_-_avec_Bootloader/production/_ext/1295770447/DHCP.o
 .debug_aranges
                0x000001c0       0x20 build/default_-_avec_Bootloader/production/_ext/1295770447/DNS.o
 .debug_aranges
                0x000001e0       0x20 build/default_-_avec_Bootloader/production/_ext/1295770447/Hashes.o
 .debug_aranges
                0x00000200       0x20 build/default_-_avec_Bootloader/production/_ext/1295770447/Helpers.o
 .debug_aranges
                0x00000220       0x20 build/default_-_avec_Bootloader/production/_ext/1295770447/HTTP2.o
 .debug_aranges
                0x00000240       0x20 build/default_-_avec_Bootloader/production/_ext/1295770447/ICMP.o
 .debug_aranges
                0x00000260       0x20 build/default_-_avec_Bootloader/production/_ext/1295770447/IP.o
 .debug_aranges
                0x00000280       0x20 build/default_-_avec_Bootloader/production/_ext/1295770447/MPFS2.o
 .debug_aranges
                0x000002a0       0x20 build/default_-_avec_Bootloader/production/_ext/1295770447/NBNS.o
 .debug_aranges
                0x000002c0       0x20 build/default_-_avec_Bootloader/production/_ext/1295770447/SMTP.o
 .debug_aranges
                0x000002e0       0x20 build/default_-_avec_Bootloader/production/_ext/1295770447/StackTsk.o
 .debug_aranges
                0x00000300       0x20 build/default_-_avec_Bootloader/production/_ext/1295770447/TCP.o
 .debug_aranges
                0x00000320       0x20 build/default_-_avec_Bootloader/production/_ext/1295770447/Tick.o
 .debug_aranges
                0x00000340       0x20 build/default_-_avec_Bootloader/production/_ext/1295770447/UDP.o
 .debug_aranges
                0x00000360       0x20 build/default_-_avec_Bootloader/production/_ext/1295770447/Random.o
 .debug_aranges
                0x00000380       0x20 build/default_-_avec_Bootloader/production/_ext/1295770447/SSL.o
 .debug_aranges
                0x000003a0       0x20 build/default_-_avec_Bootloader/production/_ext/1295770447/ARCFOUR.o
 .debug_aranges
                0x000003c0       0x20 build/default_-_avec_Bootloader/production/_ext/1295770447/ENCX24J600.o
 .debug_aranges
                0x000003e0       0x20 build/default_-_avec_Bootloader/production/_ext/1472/rs232.o
 .debug_aranges
                0x00000400       0x20 build/default_-_avec_Bootloader/production/_ext/1472/Mynetmemo.o
 .debug_aranges
                0x00000420       0x20 build/default_-_avec_Bootloader/production/_ext/1472/Eeprom_i2c.o
 .debug_aranges
                0x00000440       0x20 build/default_-_avec_Bootloader/production/_ext/1472/Temperature.o
 .debug_aranges
                0x00000460       0x20 build/default_-_avec_Bootloader/production/_ext/1472/Teleinfo.o
 .debug_aranges
                0x00000480       0x20 build/default_-_avec_Bootloader/production/_ext/1472/log.o
 .debug_aranges
                0x000004a0       0x20 build/default_-_avec_Bootloader/production/_ext/1472/divers.o
 .debug_aranges
                0x000004c0       0x20 build/default_-_avec_Bootloader/production/_ext/1472/SST25VF016.o
 .debug_aranges
                0x000004e0       0x20 build/default_-_avec_Bootloader/production/_ext/1472/drv_spi.o
 .debug_aranges
                0x00000500       0x20 build/default_-_avec_Bootloader/production/_ext/1472/mcp7941.o
 .debug_aranges
                0x00000520       0x20 build/default_-_avec_Bootloader/production/_ext/1472/RTC.o
 .debug_aranges
                0x00000540       0x20 build/default_-_avec_Bootloader/production/_ext/1472/0_SparkBox.o
 .debug_aranges
                0x00000560       0x20 build/default_-_avec_Bootloader/production/_ext/1472/Lcd.o
 .debug_aranges
                0x00000580       0x20 build/default_-_avec_Bootloader/production/_ext/1472/Analogique.o
 .debug_aranges
                0x000005a0       0x20 build/default_-_avec_Bootloader/production/_ext/1472/Evse.o
 .debug_aranges
                0x000005c0       0x20 build/default_-_avec_Bootloader/production/_ext/1472/i2c.o
 .debug_aranges
                0x000005e0       0x20 build/default_-_avec_Bootloader/production/_ext/1472/BD_sst.o
 .debug_aranges
                0x00000600       0x20 c:/program files (x86)/microchip/xc32/v1.31/bin/../lib/gcc/pic32mx/4.5.2/../../../../pic32mx/lib/size\libmchp_peripheral_32MX695F512L.a(soft_reset_lib.o)
 .debug_aranges
                0x00000620       0x28 c:/program files (x86)/microchip/xc32/v1.31/bin/../lib/gcc/pic32mx/4.5.2/../../../../pic32mx/lib/size\libmchp_peripheral_32MX695F512L.a(pcache.o)
 .debug_aranges
                0x00000648       0x20 c:/program files (x86)/microchip/xc32/v1.31/bin/../lib/gcc/pic32mx/4.5.2/../../../../pic32mx/lib/size\libmchp_peripheral_32MX695F512L.a(int_disable_interrupts_lib.o)
 .debug_aranges
                0x00000668       0x20 c:/program files (x86)/microchip/xc32/v1.31/bin/../lib/gcc/pic32mx/4.5.2/../../../../pic32mx/lib/size\libmchp_peripheral_32MX695F512L.a(int_restore_interrupts_lib.o)
 .debug_aranges
                0x00000688       0x20 c:/program files (x86)/microchip/xc32/v1.31/bin/../lib/gcc/pic32mx/4.5.2/../../../../pic32mx/lib/size\libmchp_peripheral_32MX695F512L.a(int_enable_mv_int_lib.o)
 .debug_aranges
                0x000006a8       0x60 c:/program files (x86)/microchip/xc32/v1.31/bin/../lib/gcc/pic32mx/4.5.2/../../../../pic32mx/lib/size\libmchp_peripheral_32MX695F512L.a(int_tbl_lib.o)
 .debug_aranges
                0x00000708       0x58 c:/program files (x86)/microchip/xc32/v1.31/bin/../lib/gcc/pic32mx/4.5.2/../../../../pic32mx/lib/size\libmchp_peripheral_32MX695F512L.a(uart_lib.o)
 .debug_aranges
                0x00000760       0x20 c:/program files (x86)/microchip/xc32/v1.31/bin/../lib/gcc/pic32mx/4.5.2/../../../../pic32mx/lib/size\libmchp_peripheral_32MX695F512L.a(I2CAcknowledgeByte.o)
 .debug_aranges
                0x00000780       0x20 c:/program files (x86)/microchip/xc32/v1.31/bin/../lib/gcc/pic32mx/4.5.2/../../../../pic32mx/lib/size\libmchp_peripheral_32MX695F512L.a(I2CBusIsIdle.o)
 .debug_aranges
                0x000007a0       0x20 c:/program files (x86)/microchip/xc32/v1.31/bin/../lib/gcc/pic32mx/4.5.2/../../../../pic32mx/lib/size\libmchp_peripheral_32MX695F512L.a(I2CByteWasAcknowledged.o)
 .debug_aranges
                0x000007c0       0x20 c:/program files (x86)/microchip/xc32/v1.31/bin/../lib/gcc/pic32mx/4.5.2/../../../../pic32mx/lib/size\libmchp_peripheral_32MX695F512L.a(I2CEnable.o)
 .debug_aranges
                0x000007e0       0x20 c:/program files (x86)/microchip/xc32/v1.31/bin/../lib/gcc/pic32mx/4.5.2/../../../../pic32mx/lib/size\libmchp_peripheral_32MX695F512L.a(I2CGetByte.o)
 .debug_aranges
                0x00000800       0x20 c:/program files (x86)/microchip/xc32/v1.31/bin/../lib/gcc/pic32mx/4.5.2/../../../../pic32mx/lib/size\libmchp_peripheral_32MX695F512L.a(I2CGetStatus.o)
 .debug_aranges
                0x00000820       0x20 c:/program files (x86)/microchip/xc32/v1.31/bin/../lib/gcc/pic32mx/4.5.2/../../../../pic32mx/lib/size\libmchp_peripheral_32MX695F512L.a(I2CReceivedDataIsAvailable.o)
 .debug_aranges
                0x00000840       0x20 c:/program files (x86)/microchip/xc32/v1.31/bin/../lib/gcc/pic32mx/4.5.2/../../../../pic32mx/lib/size\libmchp_peripheral_32MX695F512L.a(I2CReceiverEnable.o)
 .debug_aranges
                0x00000860       0x20 c:/program files (x86)/microchip/xc32/v1.31/bin/../lib/gcc/pic32mx/4.5.2/../../../../pic32mx/lib/size\libmchp_peripheral_32MX695F512L.a(I2CRepeatStart.o)
 .debug_aranges
                0x00000880       0x20 c:/program files (x86)/microchip/xc32/v1.31/bin/../lib/gcc/pic32mx/4.5.2/../../../../pic32mx/lib/size\libmchp_peripheral_32MX695F512L.a(I2CSendByte.o)
 .debug_aranges
                0x000008a0       0x20 c:/program files (x86)/microchip/xc32/v1.31/bin/../lib/gcc/pic32mx/4.5.2/../../../../pic32mx/lib/size\libmchp_peripheral_32MX695F512L.a(I2CSetFrequency.o)
 .debug_aranges
                0x000008c0       0x20 c:/program files (x86)/microchip/xc32/v1.31/bin/../lib/gcc/pic32mx/4.5.2/../../../../pic32mx/lib/size\libmchp_peripheral_32MX695F512L.a(I2CStart.o)
 .debug_aranges
                0x000008e0       0x20 c:/program files (x86)/microchip/xc32/v1.31/bin/../lib/gcc/pic32mx/4.5.2/../../../../pic32mx/lib/size\libmchp_peripheral_32MX695F512L.a(I2CStop.o)
 .debug_aranges
                0x00000900       0x20 c:/program files (x86)/microchip/xc32/v1.31/bin/../lib/gcc/pic32mx/4.5.2/../../../../pic32mx/lib/size\libmchp_peripheral_32MX695F512L.a(I2CTransmissionHasCompleted.o)
 .debug_aranges
                0x00000920       0x20 c:/program files (x86)/microchip/xc32/v1.31/bin/../lib/gcc/pic32mx/4.5.2/../../../../pic32mx/lib/size\libmchp_peripheral_32MX695F512L.a(I2CTransmitterIsReady.o)
 .debug_aranges
                0x00000940       0x20 c:/program files (x86)/microchip/xc32/v1.31/bin/../lib/gcc/pic32mx/4.5.2/../../../../pic32mx/lib/size\libmchp_peripheral_32MX695F512L.a(int_enable_interrupts_lib.o)
 .debug_aranges
                0x00000960       0x20 c:/program files (x86)/microchip/xc32/v1.31/bin/../lib/gcc/pic32mx/4.5.2/size\libgcc.a(_divdi3.o)
 .debug_aranges
                0x00000980       0x20 c:/program files (x86)/microchip/xc32/v1.31/bin/../lib/gcc/pic32mx/4.5.2/size\libgcc.a(_udivdi3.o)
 .debug_aranges
                0x000009a0       0x20 c:/program files (x86)/microchip/xc32/v1.31/bin/../lib/gcc/pic32mx/4.5.2/size\libgcc.a(floatunsisf.o)
 .debug_aranges
                0x000009c0       0x20 c:/program files (x86)/microchip/xc32/v1.31/bin/../lib/gcc/pic32mx/4.5.2/../../../../pic32mx/lib/size\libpic32.a(default-bootstrap-exception-handler.o)
 .debug_aranges
                0x000009e0       0x20 c:/program files (x86)/microchip/xc32/v1.31/bin/../lib/gcc/pic32mx/4.5.2/../../../../pic32mx/lib/size\libpic32.a(default-on-reset.o)
 .debug_aranges
                0x00000a00       0x20 c:/program files (x86)/microchip/xc32/v1.31/bin/../lib/gcc/pic32mx/4.5.2/../../../../pic32mx/lib/size\libpic32.a(default-on-bootstrap.o)
 .debug_aranges
                0x00000a20       0x20 c:/program files (x86)/microchip/xc32/v1.31/bin/../lib/gcc/pic32mx/4.5.2/../../../../pic32mx/lib/size\libm.a(w_sqrtf.o)
 .debug_aranges
                0x00000a40       0x20 c:/program files (x86)/microchip/xc32/v1.31/bin/../lib/gcc/pic32mx/4.5.2/../../../../pic32mx/lib/size\libc.a(atoi.o)
 .debug_aranges
                0x00000a60       0x20 c:/program files (x86)/microchip/xc32/v1.31/bin/../lib/gcc/pic32mx/4.5.2/../../../../pic32mx/lib/size\libc.a(atol.o)
 .debug_aranges
                0x00000a80       0xa0 c:/program files (x86)/microchip/xc32/v1.31/bin/../lib/gcc/pic32mx/4.5.2/../../../../pic32mx/lib/size\libc.a(ctypef.o)
 .debug_aranges
                0x00000b20       0x28 c:/program files (x86)/microchip/xc32/v1.31/bin/../lib/gcc/pic32mx/4.5.2/../../../../pic32mx/lib/size\libc.a(ltoa.o)
 .debug_aranges
                0x00000b48       0x30 c:/program files (x86)/microchip/xc32/v1.31/bin/../lib/gcc/pic32mx/4.5.2/../../../../pic32mx/lib/size\libc.a(mktime.o)
 .debug_aranges
                0x00000b78       0x20 c:/program files (x86)/microchip/xc32/v1.31/bin/../lib/gcc/pic32mx/4.5.2/../../../../pic32mx/lib/size\libc.a(strcat.o)
 .debug_aranges
                0x00000b98       0x20 c:/program files (x86)/microchip/xc32/v1.31/bin/../lib/gcc/pic32mx/4.5.2/../../../../pic32mx/lib/size\libc.a(strchr.o)
 .debug_aranges
                0x00000bb8       0x20 c:/program files (x86)/microchip/xc32/v1.31/bin/../lib/gcc/pic32mx/4.5.2/../../../../pic32mx/lib/size\libc.a(strncmp.o)
 .debug_aranges
                0x00000bd8       0x20 c:/program files (x86)/microchip/xc32/v1.31/bin/../lib/gcc/pic32mx/4.5.2/../../../../pic32mx/lib/size\libc.a(strncpy.o)
 .debug_aranges
                0x00000bf8       0x20 c:/program files (x86)/microchip/xc32/v1.31/bin/../lib/gcc/pic32mx/4.5.2/../../../../pic32mx/lib/size\libc.a(strstr.o)
 .debug_aranges
                0x00000c18       0x20 c:/program files (x86)/microchip/xc32/v1.31/bin/../lib/gcc/pic32mx/4.5.2/../../../../pic32mx/lib/size\libc.a(sprintf_cdnopsuxX.eo)
 .debug_aranges
                0x00000c38       0x20 c:/program files (x86)/microchip/xc32/v1.31/bin/../lib/gcc/pic32mx/4.5.2/../../../../pic32mx/lib/size\libc.a(doprnt_cdnopsuxX.eo)
 .debug_aranges
                0x00000c58       0x20 c:/program files (x86)/microchip/xc32/v1.31/bin/../lib/gcc/pic32mx/4.5.2/../../../../pic32mx/lib/size\libc.a(_fputc_simple.o)
 .debug_aranges
                0x00000c78       0x20 c:/program files (x86)/microchip/xc32/v1.31/bin/../lib/gcc/pic32mx/4.5.2/../../../../pic32mx/lib/size\libc.a(_flsbuf_simple.o)
 .debug_aranges
                0x00000c98       0x20 c:/program files (x86)/microchip/xc32/v1.31/bin/../lib/gcc/pic32mx/4.5.2/../../../../pic32mx/lib/size\libpic32.a(write.o)
 .debug_aranges
                0x00000cb8       0x20 c:/program files (x86)/microchip/xc32/v1.31/bin/../lib/gcc/pic32mx/4.5.2/../../../../pic32mx/lib/size\libpic32.a(_mon_putc.o)
 .debug_aranges
                0x00000cd8       0x20 c:/program files (x86)/microchip/xc32/v1.31/bin/../lib/gcc/pic32mx/4.5.2/size\libgcc.a(_lshrdi3.o)
 .debug_aranges
                0x00000cf8       0x20 c:/program files (x86)/microchip/xc32/v1.31/bin/../lib/gcc/pic32mx/4.5.2/size\libgcc.a(_umoddi3.o)

.debug_pubnames
                0x00000000     0x383c
 *(.debug_pubnames)
 .debug_pubnames
                0x00000000       0x5d build/default_-_avec_Bootloader/production/_ext/1472/HTTP_Teleinfo.o
 .debug_pubnames
                0x0000005d       0xe9 build/default_-_avec_Bootloader/production/_ext/1472/HTTP_Reseau.o
 .debug_pubnames
                0x00000146      0x11f build/default_-_avec_Bootloader/production/_ext/1472/HTTP_Mynetmemo.o
 .debug_pubnames
                0x00000265       0x5c build/default_-_avec_Bootloader/production/_ext/1472/HTTP_Password.o
 .debug_pubnames
                0x000002c1       0xbe build/default_-_avec_Bootloader/production/_ext/1472/HTTP_log.o
 .debug_pubnames
                0x0000037f       0x85 build/default_-_avec_Bootloader/production/_ext/1472/HTTP_cmd.o
 .debug_pubnames
                0x00000404      0x10f build/default_-_avec_Bootloader/production/_ext/1472/HTTP_Parametres.o
 .debug_pubnames
                0x00000513      0x121 build/default_-_avec_Bootloader/production/_ext/1472/HTTP_Donnees.o
 .debug_pubnames
                0x00000634      0x26a build/default_-_avec_Bootloader/production/_ext/1472/HTTP_Index.o
 .debug_pubnames
                0x0000089e      0x3db build/default_-_avec_Bootloader/production/_ext/1472/HTTP_ADTEK.o
 .debug_pubnames
                0x00000c79       0x33 build/default_-_avec_Bootloader/production/_ext/1295770447/Announce.o
 .debug_pubnames
                0x00000cac       0x6f build/default_-_avec_Bootloader/production/_ext/1295770447/ARP.o
 .debug_pubnames
                0x00000d1b       0x2c build/default_-_avec_Bootloader/production/_ext/1295770447/Delay.o
 .debug_pubnames
                0x00000d47       0xcc build/default_-_avec_Bootloader/production/_ext/1295770447/DHCP.o
 .debug_pubnames
                0x00000e13       0x55 build/default_-_avec_Bootloader/production/_ext/1295770447/DNS.o
 .debug_pubnames
                0x00000e68       0x97 build/default_-_avec_Bootloader/production/_ext/1295770447/Hashes.o
 .debug_pubnames
                0x00000eff      0x12c build/default_-_avec_Bootloader/production/_ext/1295770447/Helpers.o
 .debug_pubnames
                0x0000102b       0xcf build/default_-_avec_Bootloader/production/_ext/1295770447/HTTP2.o
 .debug_pubnames
                0x000010fa       0x22 build/default_-_avec_Bootloader/production/_ext/1295770447/ICMP.o
 .debug_pubnames
                0x0000111c       0x44 build/default_-_avec_Bootloader/production/_ext/1295770447/IP.o
 .debug_pubnames
                0x00001160      0x140 build/default_-_avec_Bootloader/production/_ext/1295770447/MPFS2.o
 .debug_pubnames
                0x000012a0       0x1f build/default_-_avec_Bootloader/production/_ext/1295770447/NBNS.o
 .debug_pubnames
                0x000012bf       0xd2 build/default_-_avec_Bootloader/production/_ext/1295770447/SMTP.o
 .debug_pubnames
                0x00001391       0x53 build/default_-_avec_Bootloader/production/_ext/1295770447/StackTsk.o
 .debug_pubnames
                0x000013e4      0x2ed build/default_-_avec_Bootloader/production/_ext/1295770447/TCP.o
 .debug_pubnames
                0x000016d1       0x7e build/default_-_avec_Bootloader/production/_ext/1295770447/Tick.o
 .debug_pubnames
                0x0000174f      0x155 build/default_-_avec_Bootloader/production/_ext/1295770447/UDP.o
 .debug_pubnames
                0x000018a4       0x21 build/default_-_avec_Bootloader/production/_ext/1472/MPFSImg2.o
 .debug_pubnames
                0x000018c5       0x3d build/default_-_avec_Bootloader/production/_ext/1295770447/Random.o
 .debug_pubnames
                0x00001902      0x154 build/default_-_avec_Bootloader/production/_ext/1295770447/SSL.o
 .debug_pubnames
                0x00001a56       0x39 build/default_-_avec_Bootloader/production/_ext/1295770447/ARCFOUR.o
 .debug_pubnames
                0x00001a8f      0x23d build/default_-_avec_Bootloader/production/_ext/1295770447/ENCX24J600.o
 .debug_pubnames
                0x00001ccc      0x136 build/default_-_avec_Bootloader/production/_ext/1472/rs232.o
 .debug_pubnames
                0x00001e02       0xb0 build/default_-_avec_Bootloader/production/_ext/1472/Mynetmemo.o
 .debug_pubnames
                0x00001eb2      0x208 build/default_-_avec_Bootloader/production/_ext/1472/Eeprom_i2c.o
 .debug_pubnames
                0x000020ba       0xe5 build/default_-_avec_Bootloader/production/_ext/1472/Temperature.o
 .debug_pubnames
                0x0000219f      0x193 build/default_-_avec_Bootloader/production/_ext/1472/Teleinfo.o
 .debug_pubnames
                0x00002332       0xd6 build/default_-_avec_Bootloader/production/_ext/1472/log.o
 .debug_pubnames
                0x00002408       0x44 build/default_-_avec_Bootloader/production/_ext/1472/SSLCert.o
 .debug_pubnames
                0x0000244c       0xe5 build/default_-_avec_Bootloader/production/_ext/1472/divers.o
 .debug_pubnames
                0x00002531      0x101 build/default_-_avec_Bootloader/production/_ext/1472/SST25VF016.o
 .debug_pubnames
                0x00002632       0x59 build/default_-_avec_Bootloader/production/_ext/1472/drv_spi.o
 .debug_pubnames
                0x0000268b      0x1c4 build/default_-_avec_Bootloader/production/_ext/1472/mcp7941.o
 .debug_pubnames
                0x0000284f      0x10b build/default_-_avec_Bootloader/production/_ext/1472/RTC.o
 .debug_pubnames
                0x0000295a      0x2dc build/default_-_avec_Bootloader/production/_ext/1472/0_SparkBox.o
 .debug_pubnames
                0x00002c36       0x96 build/default_-_avec_Bootloader/production/_ext/1472/Lcd.o
 .debug_pubnames
                0x00002ccc       0x75 build/default_-_avec_Bootloader/production/_ext/1472/Analogique.o
 .debug_pubnames
                0x00002d41      0x120 build/default_-_avec_Bootloader/production/_ext/1472/Evse.o
 .debug_pubnames
                0x00002e61       0x59 build/default_-_avec_Bootloader/production/_ext/1472/i2c.o
 .debug_pubnames
                0x00002eba       0xcd build/default_-_avec_Bootloader/production/_ext/1472/BD_sst.o
 .debug_pubnames
                0x00002f87       0x20 c:/program files (x86)/microchip/xc32/v1.31/bin/../lib/gcc/pic32mx/4.5.2/../../../../pic32mx/lib/size\libmchp_peripheral_32MX695F512L.a(soft_reset_lib.o)
 .debug_pubnames
                0x00002fa7       0x3b c:/program files (x86)/microchip/xc32/v1.31/bin/../lib/gcc/pic32mx/4.5.2/../../../../pic32mx/lib/size\libmchp_peripheral_32MX695F512L.a(pcache.o)
 .debug_pubnames
                0x00002fe2       0x2b c:/program files (x86)/microchip/xc32/v1.31/bin/../lib/gcc/pic32mx/4.5.2/../../../../pic32mx/lib/size\libmchp_peripheral_32MX695F512L.a(int_disable_interrupts_lib.o)
 .debug_pubnames
                0x0000300d       0x2b c:/program files (x86)/microchip/xc32/v1.31/bin/../lib/gcc/pic32mx/4.5.2/../../../../pic32mx/lib/size\libmchp_peripheral_32MX695F512L.a(int_restore_interrupts_lib.o)
 .debug_pubnames
                0x00003038       0x36 c:/program files (x86)/microchip/xc32/v1.31/bin/../lib/gcc/pic32mx/4.5.2/../../../../pic32mx/lib/size\libmchp_peripheral_32MX695F512L.a(int_enable_mv_int_lib.o)
 .debug_pubnames
                0x0000306e       0xca c:/program files (x86)/microchip/xc32/v1.31/bin/../lib/gcc/pic32mx/4.5.2/../../../../pic32mx/lib/size\libmchp_peripheral_32MX695F512L.a(int_tbl_lib.o)
 .debug_pubnames
                0x00003138       0xb1 c:/program files (x86)/microchip/xc32/v1.31/bin/../lib/gcc/pic32mx/4.5.2/../../../../pic32mx/lib/size\libmchp_peripheral_32MX695F512L.a(uart_lib.o)
 .debug_pubnames
                0x000031e9       0x29 c:/program files (x86)/microchip/xc32/v1.31/bin/../lib/gcc/pic32mx/4.5.2/../../../../pic32mx/lib/size\libmchp_peripheral_32MX695F512L.a(I2CAcknowledgeByte.o)
 .debug_pubnames
                0x00003212       0x23 c:/program files (x86)/microchip/xc32/v1.31/bin/../lib/gcc/pic32mx/4.5.2/../../../../pic32mx/lib/size\libmchp_peripheral_32MX695F512L.a(I2CBusIsIdle.o)
 .debug_pubnames
                0x00003235       0x2d c:/program files (x86)/microchip/xc32/v1.31/bin/../lib/gcc/pic32mx/4.5.2/../../../../pic32mx/lib/size\libmchp_peripheral_32MX695F512L.a(I2CByteWasAcknowledged.o)
 .debug_pubnames
                0x00003262       0x20 c:/program files (x86)/microchip/xc32/v1.31/bin/../lib/gcc/pic32mx/4.5.2/../../../../pic32mx/lib/size\libmchp_peripheral_32MX695F512L.a(I2CEnable.o)
 .debug_pubnames
                0x00003282       0x21 c:/program files (x86)/microchip/xc32/v1.31/bin/../lib/gcc/pic32mx/4.5.2/../../../../pic32mx/lib/size\libmchp_peripheral_32MX695F512L.a(I2CGetByte.o)
 .debug_pubnames
                0x000032a3       0x23 c:/program files (x86)/microchip/xc32/v1.31/bin/../lib/gcc/pic32mx/4.5.2/../../../../pic32mx/lib/size\libmchp_peripheral_32MX695F512L.a(I2CGetStatus.o)
 .debug_pubnames
                0x000032c6       0x31 c:/program files (x86)/microchip/xc32/v1.31/bin/../lib/gcc/pic32mx/4.5.2/../../../../pic32mx/lib/size\libmchp_peripheral_32MX695F512L.a(I2CReceivedDataIsAvailable.o)
 .debug_pubnames
                0x000032f7       0x28 c:/program files (x86)/microchip/xc32/v1.31/bin/../lib/gcc/pic32mx/4.5.2/../../../../pic32mx/lib/size\libmchp_peripheral_32MX695F512L.a(I2CReceiverEnable.o)
 .debug_pubnames
                0x0000331f       0x25 c:/program files (x86)/microchip/xc32/v1.31/bin/../lib/gcc/pic32mx/4.5.2/../../../../pic32mx/lib/size\libmchp_peripheral_32MX695F512L.a(I2CRepeatStart.o)
 .debug_pubnames
                0x00003344       0x22 c:/program files (x86)/microchip/xc32/v1.31/bin/../lib/gcc/pic32mx/4.5.2/../../../../pic32mx/lib/size\libmchp_peripheral_32MX695F512L.a(I2CSendByte.o)
 .debug_pubnames
                0x00003366       0x26 c:/program files (x86)/microchip/xc32/v1.31/bin/../lib/gcc/pic32mx/4.5.2/../../../../pic32mx/lib/size\libmchp_peripheral_32MX695F512L.a(I2CSetFrequency.o)
 .debug_pubnames
                0x0000338c       0x1f c:/program files (x86)/microchip/xc32/v1.31/bin/../lib/gcc/pic32mx/4.5.2/../../../../pic32mx/lib/size\libmchp_peripheral_32MX695F512L.a(I2CStart.o)
 .debug_pubnames
                0x000033ab       0x1e c:/program files (x86)/microchip/xc32/v1.31/bin/../lib/gcc/pic32mx/4.5.2/../../../../pic32mx/lib/size\libmchp_peripheral_32MX695F512L.a(I2CStop.o)
 .debug_pubnames
                0x000033c9       0x32 c:/program files (x86)/microchip/xc32/v1.31/bin/../lib/gcc/pic32mx/4.5.2/../../../../pic32mx/lib/size\libmchp_peripheral_32MX695F512L.a(I2CTransmissionHasCompleted.o)
 .debug_pubnames
                0x000033fb       0x2c c:/program files (x86)/microchip/xc32/v1.31/bin/../lib/gcc/pic32mx/4.5.2/../../../../pic32mx/lib/size\libmchp_peripheral_32MX695F512L.a(I2CTransmitterIsReady.o)
 .debug_pubnames
                0x00003427       0x2a c:/program files (x86)/microchip/xc32/v1.31/bin/../lib/gcc/pic32mx/4.5.2/../../../../pic32mx/lib/size\libmchp_peripheral_32MX695F512L.a(int_enable_interrupts_lib.o)
 .debug_pubnames
                0x00003451       0x1f c:/program files (x86)/microchip/xc32/v1.31/bin/../lib/gcc/pic32mx/4.5.2/size\libgcc.a(_divdi3.o)
 .debug_pubnames
                0x00003470       0x20 c:/program files (x86)/microchip/xc32/v1.31/bin/../lib/gcc/pic32mx/4.5.2/size\libgcc.a(_udivdi3.o)
 .debug_pubnames
                0x00003490       0x24 c:/program files (x86)/microchip/xc32/v1.31/bin/../lib/gcc/pic32mx/4.5.2/size\libgcc.a(floatunsisf.o)
 .debug_pubnames
                0x000034b4       0x33 c:/program files (x86)/microchip/xc32/v1.31/bin/../lib/gcc/pic32mx/4.5.2/../../../../pic32mx/lib/size\libpic32.a(default-bootstrap-exception-handler.o)
 .debug_pubnames
                0x000034e7       0x20 c:/program files (x86)/microchip/xc32/v1.31/bin/../lib/gcc/pic32mx/4.5.2/../../../../pic32mx/lib/size\libpic32.a(default-on-reset.o)
 .debug_pubnames
                0x00003507       0x24 c:/program files (x86)/microchip/xc32/v1.31/bin/../lib/gcc/pic32mx/4.5.2/../../../../pic32mx/lib/size\libpic32.a(default-on-bootstrap.o)
 .debug_pubnames
                0x0000352b       0x1c c:/program files (x86)/microchip/xc32/v1.31/bin/../lib/gcc/pic32mx/4.5.2/../../../../pic32mx/lib/size\libm.a(w_sqrtf.o)
 .debug_pubnames
                0x00003547       0x1b c:/program files (x86)/microchip/xc32/v1.31/bin/../lib/gcc/pic32mx/4.5.2/../../../../pic32mx/lib/size\libc.a(atoi.o)
 .debug_pubnames
                0x00003562       0x1b c:/program files (x86)/microchip/xc32/v1.31/bin/../lib/gcc/pic32mx/4.5.2/../../../../pic32mx/lib/size\libc.a(atol.o)
 .debug_pubnames
                0x0000357d       0xe1 c:/program files (x86)/microchip/xc32/v1.31/bin/../lib/gcc/pic32mx/4.5.2/../../../../pic32mx/lib/size\libc.a(ctypef.o)
 .debug_pubnames
                0x0000365e       0x25 c:/program files (x86)/microchip/xc32/v1.31/bin/../lib/gcc/pic32mx/4.5.2/../../../../pic32mx/lib/size\libc.a(ltoa.o)
 .debug_pubnames
                0x00003683       0x1d c:/program files (x86)/microchip/xc32/v1.31/bin/../lib/gcc/pic32mx/4.5.2/../../../../pic32mx/lib/size\libc.a(mktime.o)
 .debug_pubnames
                0x000036a0       0x1d c:/program files (x86)/microchip/xc32/v1.31/bin/../lib/gcc/pic32mx/4.5.2/../../../../pic32mx/lib/size\libc.a(strcat.o)
 .debug_pubnames
                0x000036bd       0x1d c:/program files (x86)/microchip/xc32/v1.31/bin/../lib/gcc/pic32mx/4.5.2/../../../../pic32mx/lib/size\libc.a(strchr.o)
 .debug_pubnames
                0x000036da       0x1e c:/program files (x86)/microchip/xc32/v1.31/bin/../lib/gcc/pic32mx/4.5.2/../../../../pic32mx/lib/size\libc.a(strncmp.o)
 .debug_pubnames
                0x000036f8       0x1e c:/program files (x86)/microchip/xc32/v1.31/bin/../lib/gcc/pic32mx/4.5.2/../../../../pic32mx/lib/size\libc.a(strncpy.o)
 .debug_pubnames
                0x00003716       0x1d c:/program files (x86)/microchip/xc32/v1.31/bin/../lib/gcc/pic32mx/4.5.2/../../../../pic32mx/lib/size\libc.a(strstr.o)
 .debug_pubnames
                0x00003733       0x29 c:/program files (x86)/microchip/xc32/v1.31/bin/../lib/gcc/pic32mx/4.5.2/../../../../pic32mx/lib/size\libc.a(sprintf_cdnopsuxX.eo)
 .debug_pubnames
                0x0000375c       0x2a c:/program files (x86)/microchip/xc32/v1.31/bin/../lib/gcc/pic32mx/4.5.2/../../../../pic32mx/lib/size\libc.a(doprnt_cdnopsuxX.eo)
 .debug_pubnames
                0x00003786       0x1c c:/program files (x86)/microchip/xc32/v1.31/bin/../lib/gcc/pic32mx/4.5.2/../../../../pic32mx/lib/size\libc.a(_fputc_simple.o)
 .debug_pubnames
                0x000037a2       0x1e c:/program files (x86)/microchip/xc32/v1.31/bin/../lib/gcc/pic32mx/4.5.2/../../../../pic32mx/lib/size\libc.a(_flsbuf_simple.o)
 .debug_pubnames
                0x000037c0       0x1c c:/program files (x86)/microchip/xc32/v1.31/bin/../lib/gcc/pic32mx/4.5.2/../../../../pic32mx/lib/size\libpic32.a(write.o)
 .debug_pubnames
                0x000037dc       0x20 c:/program files (x86)/microchip/xc32/v1.31/bin/../lib/gcc/pic32mx/4.5.2/../../../../pic32mx/lib/size\libpic32.a(_mon_putc.o)
 .debug_pubnames
                0x000037fc       0x20 c:/program files (x86)/microchip/xc32/v1.31/bin/../lib/gcc/pic32mx/4.5.2/size\libgcc.a(_lshrdi3.o)
 .debug_pubnames
                0x0000381c       0x20 c:/program files (x86)/microchip/xc32/v1.31/bin/../lib/gcc/pic32mx/4.5.2/size\libgcc.a(_umoddi3.o)

.debug_info     0x00000000    0x7a724
 *(.debug_info .gnu.linkonce.wi.*)
 .debug_info    0x00000000     0x1dae build/default_-_avec_Bootloader/production/_ext/1472/HTTP_Teleinfo.o
 .debug_info    0x00001dae     0x2156 build/default_-_avec_Bootloader/production/_ext/1472/HTTP_Reseau.o
 .debug_info    0x00003f04     0x24cb build/default_-_avec_Bootloader/production/_ext/1472/HTTP_Mynetmemo.o
 .debug_info    0x000063cf     0x1a6b build/default_-_avec_Bootloader/production/_ext/1472/HTTP_Password.o
 .debug_info    0x00007e3a     0x1d40 build/default_-_avec_Bootloader/production/_ext/1472/HTTP_log.o
 .debug_info    0x00009b7a     0x1b70 build/default_-_avec_Bootloader/production/_ext/1472/HTTP_cmd.o
 .debug_info    0x0000b6ea     0x2182 build/default_-_avec_Bootloader/production/_ext/1472/HTTP_Parametres.o
 .debug_info    0x0000d86c     0x1ceb build/default_-_avec_Bootloader/production/_ext/1472/HTTP_Donnees.o
 .debug_info    0x0000f557     0x2544 build/default_-_avec_Bootloader/production/_ext/1472/HTTP_Index.o
 .debug_info    0x00011a9b     0x379a build/default_-_avec_Bootloader/production/_ext/1472/HTTP_ADTEK.o
 .debug_info    0x00015235     0x1b67 build/default_-_avec_Bootloader/production/_ext/1295770447/Announce.o
 .debug_info    0x00016d9c     0x1ba0 build/default_-_avec_Bootloader/production/_ext/1295770447/ARP.o
 .debug_info    0x0001893c     0x1201 build/default_-_avec_Bootloader/production/_ext/1295770447/Delay.o
 .debug_info    0x00019b3d     0x2135 build/default_-_avec_Bootloader/production/_ext/1295770447/DHCP.o
 .debug_info    0x0001bc72     0x116e build/default_-_avec_Bootloader/production/_ext/1295770447/DHCPs.o
 .debug_info    0x0001cde0     0x1dbd build/default_-_avec_Bootloader/production/_ext/1295770447/DNS.o
 .debug_info    0x0001eb9d     0x116f build/default_-_avec_Bootloader/production/_ext/1295770447/DynDNS.o
 .debug_info    0x0001fd0c     0x116c build/default_-_avec_Bootloader/production/_ext/1295770447/FTP.o
 .debug_info    0x00020e78     0x1cdf build/default_-_avec_Bootloader/production/_ext/1295770447/Hashes.o
 .debug_info    0x00022b57     0x25fa build/default_-_avec_Bootloader/production/_ext/1295770447/Helpers.o
 .debug_info    0x00025151     0x23ce build/default_-_avec_Bootloader/production/_ext/1295770447/HTTP2.o
 .debug_info    0x0002751f     0x1765 build/default_-_avec_Bootloader/production/_ext/1295770447/ICMP.o
 .debug_info    0x00028c84     0x1b6a build/default_-_avec_Bootloader/production/_ext/1295770447/IP.o
 .debug_info    0x0002a7ee     0x1940 build/default_-_avec_Bootloader/production/_ext/1295770447/MPFS2.o
 .debug_info    0x0002c12e     0x1ce2 build/default_-_avec_Bootloader/production/_ext/1295770447/NBNS.o
 .debug_info    0x0002de10     0x24ef build/default_-_avec_Bootloader/production/_ext/1295770447/SMTP.o
 .debug_info    0x000302ff     0x116d build/default_-_avec_Bootloader/production/_ext/1295770447/SNMP.o
 .debug_info    0x0003146c     0x116d build/default_-_avec_Bootloader/production/_ext/1295770447/SNTP.o
 .debug_info    0x000325d9     0x1172 build/default_-_avec_Bootloader/production/_ext/1295770447/SPIEEPROM.o
 .debug_info    0x0003374b     0x1171 build/default_-_avec_Bootloader/production/_ext/1295770447/SPIFlash.o
 .debug_info    0x000348bc     0x116f build/default_-_avec_Bootloader/production/_ext/1295770447/SPIRAM.o
 .debug_info    0x00035a2b     0x1a5c build/default_-_avec_Bootloader/production/_ext/1295770447/StackTsk.o
 .debug_info    0x00037487     0x3a56 build/default_-_avec_Bootloader/production/_ext/1295770447/TCP.o
 .debug_info    0x0003aedd     0x116f build/default_-_avec_Bootloader/production/_ext/1295770447/Telnet.o
 .debug_info    0x0003c04c     0x116e build/default_-_avec_Bootloader/production/_ext/1295770447/TFTPc.o
 .debug_info    0x0003d1ba     0x1af9 build/default_-_avec_Bootloader/production/_ext/1295770447/Tick.o
 .debug_info    0x0003ecb3     0x116d build/default_-_avec_Bootloader/production/_ext/1295770447/UART.o
 .debug_info    0x0003fe20     0x2242 build/default_-_avec_Bootloader/production/_ext/1295770447/UDP.o
 .debug_info    0x00042062     0x1195 build/default_-_avec_Bootloader/production/_ext/1472/MPFSImg2.o
 .debug_info    0x000431f7     0x1342 build/default_-_avec_Bootloader/production/_ext/1295770447/Random.o
 .debug_info    0x00044539     0x116c build/default_-_avec_Bootloader/production/_ext/1295770447/RSA.o
 .debug_info    0x000456a5     0x36cb build/default_-_avec_Bootloader/production/_ext/1295770447/SSL.o
 .debug_info    0x00048d70     0x12f6 build/default_-_avec_Bootloader/production/_ext/1295770447/ARCFOUR.o
 .debug_info    0x0004a066     0x116f build/default_-_avec_Bootloader/production/_ext/1295770447/BigInt.o
 .debug_info    0x0004b1d5     0x116f build/default_-_avec_Bootloader/production/_ext/1295770447/AutoIP.o
 .debug_info    0x0004c344     0x116d build/default_-_avec_Bootloader/production/_ext/1295770447/DNSs.o
 .debug_info    0x0004d4b1     0x33c3 build/default_-_avec_Bootloader/production/_ext/1295770447/ENCX24J600.o
 .debug_info    0x00050874     0x1177 build/default_-_avec_Bootloader/production/_ext/1295770447/ETHPIC32ExtPhy.o
 .debug_info    0x000519eb     0x117e build/default_-_avec_Bootloader/production/_ext/1295770447/ETHPIC32ExtPhyDP83848.o
 .debug_info    0x00052b69     0x1177 build/default_-_avec_Bootloader/production/_ext/1295770447/ETHPIC32IntMac.o
 .debug_info    0x00053ce0     0x21ac build/default_-_avec_Bootloader/production/_ext/1472/rs232.o
 .debug_info    0x00055e8c     0x192e build/default_-_avec_Bootloader/production/_ext/1472/Mynetmemo.o
 .debug_info    0x000577ba     0x290f build/default_-_avec_Bootloader/production/_ext/1472/Eeprom_i2c.o
 .debug_info    0x0005a0c9     0x1883 build/default_-_avec_Bootloader/production/_ext/1472/Temperature.o
 .debug_info    0x0005b94c     0x1c23 build/default_-_avec_Bootloader/production/_ext/1472/Teleinfo.o
 .debug_info    0x0005d56f     0x1484 build/default_-_avec_Bootloader/production/_ext/1472/log.o
 .debug_info    0x0005e9f3     0x1210 build/default_-_avec_Bootloader/production/_ext/1472/SSLCert.o
 .debug_info    0x0005fc03     0x240e build/default_-_avec_Bootloader/production/_ext/1472/divers.o
 .debug_info    0x00062011     0x1b74 build/default_-_avec_Bootloader/production/_ext/1472/SST25VF016.o
 .debug_info    0x00063b85     0x1720 build/default_-_avec_Bootloader/production/_ext/1472/drv_spi.o
 .debug_info    0x000652a5     0x1da1 build/default_-_avec_Bootloader/production/_ext/1472/mcp7941.o
 .debug_info    0x00067046     0x1eed build/default_-_avec_Bootloader/production/_ext/1472/RTC.o
 .debug_info    0x00068f33     0x448d build/default_-_avec_Bootloader/production/_ext/1472/0_SparkBox.o
 .debug_info    0x0006d3c0     0x182b build/default_-_avec_Bootloader/production/_ext/1472/Lcd.o
 .debug_info    0x0006ebeb     0x23a8 build/default_-_avec_Bootloader/production/_ext/1472/Analogique.o
 .debug_info    0x00070f93     0x29a3 build/default_-_avec_Bootloader/production/_ext/1472/Evse.o
 .debug_info    0x00073936     0x14fa build/default_-_avec_Bootloader/production/_ext/1472/i2c.o
 .debug_info    0x00074e30     0x1cd9 build/default_-_avec_Bootloader/production/_ext/1472/BD_sst.o
 .debug_info    0x00076b09       0xb2 c:/program files (x86)/microchip/xc32/v1.31/bin/../lib/gcc/pic32mx/4.5.2/../../../../pic32mx/lib/size\libmchp_peripheral_32MX695F512L.a(soft_reset_lib.o)
 .debug_info    0x00076bbb       0xbf c:/program files (x86)/microchip/xc32/v1.31/bin/../lib/gcc/pic32mx/4.5.2/../../../../pic32mx/lib/size\libmchp_peripheral_32MX695F512L.a(pcache.o)
 .debug_info    0x00076c7a       0xb6 c:/program files (x86)/microchip/xc32/v1.31/bin/../lib/gcc/pic32mx/4.5.2/../../../../pic32mx/lib/size\libmchp_peripheral_32MX695F512L.a(int_disable_interrupts_lib.o)
 .debug_info    0x00076d30       0xb6 c:/program files (x86)/microchip/xc32/v1.31/bin/../lib/gcc/pic32mx/4.5.2/../../../../pic32mx/lib/size\libmchp_peripheral_32MX695F512L.a(int_restore_interrupts_lib.o)
 .debug_info    0x00076de6       0xbc c:/program files (x86)/microchip/xc32/v1.31/bin/../lib/gcc/pic32mx/4.5.2/../../../../pic32mx/lib/size\libmchp_peripheral_32MX695F512L.a(int_enable_mv_int_lib.o)
 .debug_info    0x00076ea2      0x196 c:/program files (x86)/microchip/xc32/v1.31/bin/../lib/gcc/pic32mx/4.5.2/../../../../pic32mx/lib/size\libmchp_peripheral_32MX695F512L.a(int_tbl_lib.o)
 .debug_info    0x00077038      0x175 c:/program files (x86)/microchip/xc32/v1.31/bin/../lib/gcc/pic32mx/4.5.2/../../../../pic32mx/lib/size\libmchp_peripheral_32MX695F512L.a(uart_lib.o)
 .debug_info    0x000771ad       0xac c:/program files (x86)/microchip/xc32/v1.31/bin/../lib/gcc/pic32mx/4.5.2/../../../../pic32mx/lib/size\libmchp_peripheral_32MX695F512L.a(I2CAcknowledgeByte.o)
 .debug_info    0x00077259       0xa0 c:/program files (x86)/microchip/xc32/v1.31/bin/../lib/gcc/pic32mx/4.5.2/../../../../pic32mx/lib/size\libmchp_peripheral_32MX695F512L.a(I2CBusIsIdle.o)
 .debug_info    0x000772f9       0xb4 c:/program files (x86)/microchip/xc32/v1.31/bin/../lib/gcc/pic32mx/4.5.2/../../../../pic32mx/lib/size\libmchp_peripheral_32MX695F512L.a(I2CByteWasAcknowledged.o)
 .debug_info    0x000773ad       0x9a c:/program files (x86)/microchip/xc32/v1.31/bin/../lib/gcc/pic32mx/4.5.2/../../../../pic32mx/lib/size\libmchp_peripheral_32MX695F512L.a(I2CEnable.o)
 .debug_info    0x00077447       0x9c c:/program files (x86)/microchip/xc32/v1.31/bin/../lib/gcc/pic32mx/4.5.2/../../../../pic32mx/lib/size\libmchp_peripheral_32MX695F512L.a(I2CGetByte.o)
 .debug_info    0x000774e3       0xa0 c:/program files (x86)/microchip/xc32/v1.31/bin/../lib/gcc/pic32mx/4.5.2/../../../../pic32mx/lib/size\libmchp_peripheral_32MX695F512L.a(I2CGetStatus.o)
 .debug_info    0x00077583       0xbc c:/program files (x86)/microchip/xc32/v1.31/bin/../lib/gcc/pic32mx/4.5.2/../../../../pic32mx/lib/size\libmchp_peripheral_32MX695F512L.a(I2CReceivedDataIsAvailable.o)
 .debug_info    0x0007763f       0xaa c:/program files (x86)/microchip/xc32/v1.31/bin/../lib/gcc/pic32mx/4.5.2/../../../../pic32mx/lib/size\libmchp_peripheral_32MX695F512L.a(I2CReceiverEnable.o)
 .debug_info    0x000776e9       0xa4 c:/program files (x86)/microchip/xc32/v1.31/bin/../lib/gcc/pic32mx/4.5.2/../../../../pic32mx/lib/size\libmchp_peripheral_32MX695F512L.a(I2CRepeatStart.o)
 .debug_info    0x0007778d       0x9e c:/program files (x86)/microchip/xc32/v1.31/bin/../lib/gcc/pic32mx/4.5.2/../../../../pic32mx/lib/size\libmchp_peripheral_32MX695F512L.a(I2CSendByte.o)
 .debug_info    0x0007782b       0xa6 c:/program files (x86)/microchip/xc32/v1.31/bin/../lib/gcc/pic32mx/4.5.2/../../../../pic32mx/lib/size\libmchp_peripheral_32MX695F512L.a(I2CSetFrequency.o)
 .debug_info    0x000778d1       0x98 c:/program files (x86)/microchip/xc32/v1.31/bin/../lib/gcc/pic32mx/4.5.2/../../../../pic32mx/lib/size\libmchp_peripheral_32MX695F512L.a(I2CStart.o)
 .debug_info    0x00077969       0x96 c:/program files (x86)/microchip/xc32/v1.31/bin/../lib/gcc/pic32mx/4.5.2/../../../../pic32mx/lib/size\libmchp_peripheral_32MX695F512L.a(I2CStop.o)
 .debug_info    0x000779ff       0xbe c:/program files (x86)/microchip/xc32/v1.31/bin/../lib/gcc/pic32mx/4.5.2/../../../../pic32mx/lib/size\libmchp_peripheral_32MX695F512L.a(I2CTransmissionHasCompleted.o)
 .debug_info    0x00077abd       0xb2 c:/program files (x86)/microchip/xc32/v1.31/bin/../lib/gcc/pic32mx/4.5.2/../../../../pic32mx/lib/size\libmchp_peripheral_32MX695F512L.a(I2CTransmitterIsReady.o)
 .debug_info    0x00077b6f       0xb4 c:/program files (x86)/microchip/xc32/v1.31/bin/../lib/gcc/pic32mx/4.5.2/../../../../pic32mx/lib/size\libmchp_peripheral_32MX695F512L.a(int_enable_interrupts_lib.o)
 .debug_info    0x00077c23        0x0 c:/program files (x86)/microchip/xc32/v1.31/bin/../lib/gcc/pic32mx/4.5.2/../../../../pic32mx/lib/size\libmchp_peripheral_32MX695F512L.a(I2CPrivate.o)
 .debug_info    0x00077c23      0x797 c:/program files (x86)/microchip/xc32/v1.31/bin/../lib/gcc/pic32mx/4.5.2/size\libgcc.a(_divdi3.o)
 .debug_info    0x000783ba      0x767 c:/program files (x86)/microchip/xc32/v1.31/bin/../lib/gcc/pic32mx/4.5.2/size\libgcc.a(_udivdi3.o)
 .debug_info    0x00078b21      0x15f c:/program files (x86)/microchip/xc32/v1.31/bin/../lib/gcc/pic32mx/4.5.2/size\libgcc.a(floatunsisf.o)
 .debug_info    0x00078c80       0xde c:/program files (x86)/microchip/xc32/v1.31/bin/../lib/gcc/pic32mx/4.5.2/../../../../pic32mx/lib/size\libpic32.a(default-bootstrap-exception-handler.o)
 .debug_info    0x00078d5e       0xb8 c:/program files (x86)/microchip/xc32/v1.31/bin/../lib/gcc/pic32mx/4.5.2/../../../../pic32mx/lib/size\libpic32.a(default-on-reset.o)
 .debug_info    0x00078e16       0xc0 c:/program files (x86)/microchip/xc32/v1.31/bin/../lib/gcc/pic32mx/4.5.2/../../../../pic32mx/lib/size\libpic32.a(default-on-bootstrap.o)
 .debug_info    0x00078ed6       0xa8 c:/program files (x86)/microchip/xc32/v1.31/bin/../lib/gcc/pic32mx/4.5.2/../../../../pic32mx/lib/size\libm.a(w_sqrtf.o)
 .debug_info    0x00078f7e        0x0 c:/program files (x86)/microchip/xc32/v1.31/bin/../lib/gcc/pic32mx/4.5.2/../../../../pic32mx/lib/size\libm.a(s_lib_ver.o)
 .debug_info    0x00078f7e        0x0 c:/program files (x86)/microchip/xc32/v1.31/bin/../lib/gcc/pic32mx/4.5.2/../../../../pic32mx/lib/size\libpic32.a(errno.o)
 .debug_info    0x00078f7e       0xad c:/program files (x86)/microchip/xc32/v1.31/bin/../lib/gcc/pic32mx/4.5.2/../../../../pic32mx/lib/size\libc.a(atoi.o)
 .debug_info    0x0007902b       0xad c:/program files (x86)/microchip/xc32/v1.31/bin/../lib/gcc/pic32mx/4.5.2/../../../../pic32mx/lib/size\libc.a(atol.o)
 .debug_info    0x000790d8        0x0 c:/program files (x86)/microchip/xc32/v1.31/bin/../lib/gcc/pic32mx/4.5.2/../../../../pic32mx/lib/size\libc.a(ctype.o)
 .debug_info    0x000790d8      0x215 c:/program files (x86)/microchip/xc32/v1.31/bin/../lib/gcc/pic32mx/4.5.2/../../../../pic32mx/lib/size\libc.a(ctypef.o)
 .debug_info    0x000792ed       0xc1 c:/program files (x86)/microchip/xc32/v1.31/bin/../lib/gcc/pic32mx/4.5.2/../../../../pic32mx/lib/size\libc.a(ltoa.o)
 .debug_info    0x000793ae      0x105 c:/program files (x86)/microchip/xc32/v1.31/bin/../lib/gcc/pic32mx/4.5.2/../../../../pic32mx/lib/size\libc.a(mktime.o)
 .debug_info    0x000794b3       0xb1 c:/program files (x86)/microchip/xc32/v1.31/bin/../lib/gcc/pic32mx/4.5.2/../../../../pic32mx/lib/size\libc.a(strcat.o)
 .debug_info    0x00079564       0xb1 c:/program files (x86)/microchip/xc32/v1.31/bin/../lib/gcc/pic32mx/4.5.2/../../../../pic32mx/lib/size\libc.a(strchr.o)
 .debug_info    0x00079615       0xb3 c:/program files (x86)/microchip/xc32/v1.31/bin/../lib/gcc/pic32mx/4.5.2/../../../../pic32mx/lib/size\libc.a(strncmp.o)
 .debug_info    0x000796c8       0xb3 c:/program files (x86)/microchip/xc32/v1.31/bin/../lib/gcc/pic32mx/4.5.2/../../../../pic32mx/lib/size\libc.a(strncpy.o)
 .debug_info    0x0007977b       0xb1 c:/program files (x86)/microchip/xc32/v1.31/bin/../lib/gcc/pic32mx/4.5.2/../../../../pic32mx/lib/size\libc.a(strstr.o)
 .debug_info    0x0007982c       0xbe c:/program files (x86)/microchip/xc32/v1.31/bin/../lib/gcc/pic32mx/4.5.2/../../../../pic32mx/lib/size\libc.a(sprintf_cdnopsuxX.eo)
 .debug_info    0x000798ea       0xbf c:/program files (x86)/microchip/xc32/v1.31/bin/../lib/gcc/pic32mx/4.5.2/../../../../pic32mx/lib/size\libc.a(doprnt_cdnopsuxX.eo)
 .debug_info    0x000799a9       0xaf c:/program files (x86)/microchip/xc32/v1.31/bin/../lib/gcc/pic32mx/4.5.2/../../../../pic32mx/lib/size\libc.a(_fputc_simple.o)
 .debug_info    0x00079a58        0x0 c:/program files (x86)/microchip/xc32/v1.31/bin/../lib/gcc/pic32mx/4.5.2/../../../../pic32mx/lib/size\libc.a(_iob.o)
 .debug_info    0x00079a58       0xb2 c:/program files (x86)/microchip/xc32/v1.31/bin/../lib/gcc/pic32mx/4.5.2/../../../../pic32mx/lib/size\libc.a(_flsbuf_simple.o)
 .debug_info    0x00079b0a       0xa9 c:/program files (x86)/microchip/xc32/v1.31/bin/../lib/gcc/pic32mx/4.5.2/../../../../pic32mx/lib/size\libpic32.a(write.o)
 .debug_info    0x00079bb3       0xb1 c:/program files (x86)/microchip/xc32/v1.31/bin/../lib/gcc/pic32mx/4.5.2/../../../../pic32mx/lib/size\libpic32.a(_mon_putc.o)
 .debug_info    0x00079c64        0x0 c:/program files (x86)/microchip/xc32/v1.31/bin/../lib/gcc/pic32mx/4.5.2/../../../../pic32mx/lib/size\libpic32.a(xc32_uart.o)
 .debug_info    0x00079c64      0x320 c:/program files (x86)/microchip/xc32/v1.31/bin/../lib/gcc/pic32mx/4.5.2/size\libgcc.a(_lshrdi3.o)
 .debug_info    0x00079f84      0x7a0 c:/program files (x86)/microchip/xc32/v1.31/bin/../lib/gcc/pic32mx/4.5.2/size\libgcc.a(_umoddi3.o)

.debug_abbrev   0x00000000     0xa187
 *(.debug_abbrev)
 .debug_abbrev  0x00000000      0x1f6 build/default_-_avec_Bootloader/production/_ext/1472/HTTP_Teleinfo.o
 .debug_abbrev  0x000001f6      0x227 build/default_-_avec_Bootloader/production/_ext/1472/HTTP_Reseau.o
 .debug_abbrev  0x0000041d      0x23c build/default_-_avec_Bootloader/production/_ext/1472/HTTP_Mynetmemo.o
 .debug_abbrev  0x00000659      0x214 build/default_-_avec_Bootloader/production/_ext/1472/HTTP_Password.o
 .debug_abbrev  0x0000086d      0x244 build/default_-_avec_Bootloader/production/_ext/1472/HTTP_log.o
 .debug_abbrev  0x00000ab1      0x231 build/default_-_avec_Bootloader/production/_ext/1472/HTTP_cmd.o
 .debug_abbrev  0x00000ce2      0x2ec build/default_-_avec_Bootloader/production/_ext/1472/HTTP_Parametres.o
 .debug_abbrev  0x00000fce      0x23e build/default_-_avec_Bootloader/production/_ext/1472/HTTP_Donnees.o
 .debug_abbrev  0x0000120c      0x24d build/default_-_avec_Bootloader/production/_ext/1472/HTTP_Index.o
 .debug_abbrev  0x00001459      0x335 build/default_-_avec_Bootloader/production/_ext/1472/HTTP_ADTEK.o
 .debug_abbrev  0x0000178e      0x22a build/default_-_avec_Bootloader/production/_ext/1295770447/Announce.o
 .debug_abbrev  0x000019b8      0x275 build/default_-_avec_Bootloader/production/_ext/1295770447/ARP.o
 .debug_abbrev  0x00001c2d      0x1b7 build/default_-_avec_Bootloader/production/_ext/1295770447/Delay.o
 .debug_abbrev  0x00001de4      0x2e6 build/default_-_avec_Bootloader/production/_ext/1295770447/DHCP.o
 .debug_abbrev  0x000020ca      0x166 build/default_-_avec_Bootloader/production/_ext/1295770447/DHCPs.o
 .debug_abbrev  0x00002230      0x28d build/default_-_avec_Bootloader/production/_ext/1295770447/DNS.o
 .debug_abbrev  0x000024bd      0x166 build/default_-_avec_Bootloader/production/_ext/1295770447/DynDNS.o
 .debug_abbrev  0x00002623      0x166 build/default_-_avec_Bootloader/production/_ext/1295770447/FTP.o
 .debug_abbrev  0x00002789      0x2b6 build/default_-_avec_Bootloader/production/_ext/1295770447/Hashes.o
 .debug_abbrev  0x00002a3f      0x2a2 build/default_-_avec_Bootloader/production/_ext/1295770447/Helpers.o
 .debug_abbrev  0x00002ce1      0x35b build/default_-_avec_Bootloader/production/_ext/1295770447/HTTP2.o
 .debug_abbrev  0x0000303c      0x1c0 build/default_-_avec_Bootloader/production/_ext/1295770447/ICMP.o
 .debug_abbrev  0x000031fc      0x26a build/default_-_avec_Bootloader/production/_ext/1295770447/IP.o
 .debug_abbrev  0x00003466      0x2cd build/default_-_avec_Bootloader/production/_ext/1295770447/MPFS2.o
 .debug_abbrev  0x00003733      0x289 build/default_-_avec_Bootloader/production/_ext/1295770447/NBNS.o
 .debug_abbrev  0x000039bc      0x325 build/default_-_avec_Bootloader/production/_ext/1295770447/SMTP.o
 .debug_abbrev  0x00003ce1      0x166 build/default_-_avec_Bootloader/production/_ext/1295770447/SNMP.o
 .debug_abbrev  0x00003e47      0x166 build/default_-_avec_Bootloader/production/_ext/1295770447/SNTP.o
 .debug_abbrev  0x00003fad      0x166 build/default_-_avec_Bootloader/production/_ext/1295770447/SPIEEPROM.o
 .debug_abbrev  0x00004113      0x166 build/default_-_avec_Bootloader/production/_ext/1295770447/SPIFlash.o
 .debug_abbrev  0x00004279      0x166 build/default_-_avec_Bootloader/production/_ext/1295770447/SPIRAM.o
 .debug_abbrev  0x000043df      0x241 build/default_-_avec_Bootloader/production/_ext/1295770447/StackTsk.o
 .debug_abbrev  0x00004620      0x39c build/default_-_avec_Bootloader/production/_ext/1295770447/TCP.o
 .debug_abbrev  0x000049bc      0x166 build/default_-_avec_Bootloader/production/_ext/1295770447/Telnet.o
 .debug_abbrev  0x00004b22      0x166 build/default_-_avec_Bootloader/production/_ext/1295770447/TFTPc.o
 .debug_abbrev  0x00004c88      0x223 build/default_-_avec_Bootloader/production/_ext/1295770447/Tick.o
 .debug_abbrev  0x00004eab      0x166 build/default_-_avec_Bootloader/production/_ext/1295770447/UART.o
 .debug_abbrev  0x00005011      0x367 build/default_-_avec_Bootloader/production/_ext/1295770447/UDP.o
 .debug_abbrev  0x00005378      0x180 build/default_-_avec_Bootloader/production/_ext/1472/MPFSImg2.o
 .debug_abbrev  0x000054f8      0x1de build/default_-_avec_Bootloader/production/_ext/1295770447/Random.o
 .debug_abbrev  0x000056d6      0x166 build/default_-_avec_Bootloader/production/_ext/1295770447/RSA.o
 .debug_abbrev  0x0000583c      0x3e9 build/default_-_avec_Bootloader/production/_ext/1295770447/SSL.o
 .debug_abbrev  0x00005c25      0x1b9 build/default_-_avec_Bootloader/production/_ext/1295770447/ARCFOUR.o
 .debug_abbrev  0x00005dde      0x166 build/default_-_avec_Bootloader/production/_ext/1295770447/BigInt.o
 .debug_abbrev  0x00005f44      0x166 build/default_-_avec_Bootloader/production/_ext/1295770447/AutoIP.o
 .debug_abbrev  0x000060aa      0x166 build/default_-_avec_Bootloader/production/_ext/1295770447/DNSs.o
 .debug_abbrev  0x00006210      0x386 build/default_-_avec_Bootloader/production/_ext/1295770447/ENCX24J600.o
 .debug_abbrev  0x00006596      0x166 build/default_-_avec_Bootloader/production/_ext/1295770447/ETHPIC32ExtPhy.o
 .debug_abbrev  0x000066fc      0x166 build/default_-_avec_Bootloader/production/_ext/1295770447/ETHPIC32ExtPhyDP83848.o
 .debug_abbrev  0x00006862      0x166 build/default_-_avec_Bootloader/production/_ext/1295770447/ETHPIC32IntMac.o
 .debug_abbrev  0x000069c8      0x215 build/default_-_avec_Bootloader/production/_ext/1472/rs232.o
 .debug_abbrev  0x00006bdd      0x1f7 build/default_-_avec_Bootloader/production/_ext/1472/Mynetmemo.o
 .debug_abbrev  0x00006dd4      0x3b9 build/default_-_avec_Bootloader/production/_ext/1472/Eeprom_i2c.o
 .debug_abbrev  0x0000718d      0x25f build/default_-_avec_Bootloader/production/_ext/1472/Temperature.o
 .debug_abbrev  0x000073ec      0x282 build/default_-_avec_Bootloader/production/_ext/1472/Teleinfo.o
 .debug_abbrev  0x0000766e      0x1d3 build/default_-_avec_Bootloader/production/_ext/1472/log.o
 .debug_abbrev  0x00007841      0x1ab build/default_-_avec_Bootloader/production/_ext/1472/SSLCert.o
 .debug_abbrev  0x000079ec      0x2e1 build/default_-_avec_Bootloader/production/_ext/1472/divers.o
 .debug_abbrev  0x00007ccd      0x27e build/default_-_avec_Bootloader/production/_ext/1472/SST25VF016.o
 .debug_abbrev  0x00007f4b      0x256 build/default_-_avec_Bootloader/production/_ext/1472/drv_spi.o
 .debug_abbrev  0x000081a1      0x2d9 build/default_-_avec_Bootloader/production/_ext/1472/mcp7941.o
 .debug_abbrev  0x0000847a      0x2d6 build/default_-_avec_Bootloader/production/_ext/1472/RTC.o
 .debug_abbrev  0x00008750      0x43b build/default_-_avec_Bootloader/production/_ext/1472/0_SparkBox.o
 .debug_abbrev  0x00008b8b      0x1c6 build/default_-_avec_Bootloader/production/_ext/1472/Lcd.o
 .debug_abbrev  0x00008d51      0x1f3 build/default_-_avec_Bootloader/production/_ext/1472/Analogique.o
 .debug_abbrev  0x00008f44      0x2c1 build/default_-_avec_Bootloader/production/_ext/1472/Evse.o
 .debug_abbrev  0x00009205      0x1f5 build/default_-_avec_Bootloader/production/_ext/1472/i2c.o
 .debug_abbrev  0x000093fa      0x23b build/default_-_avec_Bootloader/production/_ext/1472/BD_sst.o
 .debug_abbrev  0x00009635       0x34 c:/program files (x86)/microchip/xc32/v1.31/bin/../lib/gcc/pic32mx/4.5.2/../../../../pic32mx/lib/size\libmchp_peripheral_32MX695F512L.a(soft_reset_lib.o)
 .debug_abbrev  0x00009669       0x25 c:/program files (x86)/microchip/xc32/v1.31/bin/../lib/gcc/pic32mx/4.5.2/../../../../pic32mx/lib/size\libmchp_peripheral_32MX695F512L.a(pcache.o)
 .debug_abbrev  0x0000968e       0x25 c:/program files (x86)/microchip/xc32/v1.31/bin/../lib/gcc/pic32mx/4.5.2/../../../../pic32mx/lib/size\libmchp_peripheral_32MX695F512L.a(int_disable_interrupts_lib.o)
 .debug_abbrev  0x000096b3       0x25 c:/program files (x86)/microchip/xc32/v1.31/bin/../lib/gcc/pic32mx/4.5.2/../../../../pic32mx/lib/size\libmchp_peripheral_32MX695F512L.a(int_restore_interrupts_lib.o)
 .debug_abbrev  0x000096d8       0x25 c:/program files (x86)/microchip/xc32/v1.31/bin/../lib/gcc/pic32mx/4.5.2/../../../../pic32mx/lib/size\libmchp_peripheral_32MX695F512L.a(int_enable_mv_int_lib.o)
 .debug_abbrev  0x000096fd       0x25 c:/program files (x86)/microchip/xc32/v1.31/bin/../lib/gcc/pic32mx/4.5.2/../../../../pic32mx/lib/size\libmchp_peripheral_32MX695F512L.a(int_tbl_lib.o)
 .debug_abbrev  0x00009722       0x38 c:/program files (x86)/microchip/xc32/v1.31/bin/../lib/gcc/pic32mx/4.5.2/../../../../pic32mx/lib/size\libmchp_peripheral_32MX695F512L.a(uart_lib.o)
 .debug_abbrev  0x0000975a       0x25 c:/program files (x86)/microchip/xc32/v1.31/bin/../lib/gcc/pic32mx/4.5.2/../../../../pic32mx/lib/size\libmchp_peripheral_32MX695F512L.a(I2CAcknowledgeByte.o)
 .debug_abbrev  0x0000977f       0x25 c:/program files (x86)/microchip/xc32/v1.31/bin/../lib/gcc/pic32mx/4.5.2/../../../../pic32mx/lib/size\libmchp_peripheral_32MX695F512L.a(I2CBusIsIdle.o)
 .debug_abbrev  0x000097a4       0x25 c:/program files (x86)/microchip/xc32/v1.31/bin/../lib/gcc/pic32mx/4.5.2/../../../../pic32mx/lib/size\libmchp_peripheral_32MX695F512L.a(I2CByteWasAcknowledged.o)
 .debug_abbrev  0x000097c9       0x25 c:/program files (x86)/microchip/xc32/v1.31/bin/../lib/gcc/pic32mx/4.5.2/../../../../pic32mx/lib/size\libmchp_peripheral_32MX695F512L.a(I2CEnable.o)
 .debug_abbrev  0x000097ee       0x25 c:/program files (x86)/microchip/xc32/v1.31/bin/../lib/gcc/pic32mx/4.5.2/../../../../pic32mx/lib/size\libmchp_peripheral_32MX695F512L.a(I2CGetByte.o)
 .debug_abbrev  0x00009813       0x25 c:/program files (x86)/microchip/xc32/v1.31/bin/../lib/gcc/pic32mx/4.5.2/../../../../pic32mx/lib/size\libmchp_peripheral_32MX695F512L.a(I2CGetStatus.o)
 .debug_abbrev  0x00009838       0x25 c:/program files (x86)/microchip/xc32/v1.31/bin/../lib/gcc/pic32mx/4.5.2/../../../../pic32mx/lib/size\libmchp_peripheral_32MX695F512L.a(I2CReceivedDataIsAvailable.o)
 .debug_abbrev  0x0000985d       0x25 c:/program files (x86)/microchip/xc32/v1.31/bin/../lib/gcc/pic32mx/4.5.2/../../../../pic32mx/lib/size\libmchp_peripheral_32MX695F512L.a(I2CReceiverEnable.o)
 .debug_abbrev  0x00009882       0x25 c:/program files (x86)/microchip/xc32/v1.31/bin/../lib/gcc/pic32mx/4.5.2/../../../../pic32mx/lib/size\libmchp_peripheral_32MX695F512L.a(I2CRepeatStart.o)
 .debug_abbrev  0x000098a7       0x25 c:/program files (x86)/microchip/xc32/v1.31/bin/../lib/gcc/pic32mx/4.5.2/../../../../pic32mx/lib/size\libmchp_peripheral_32MX695F512L.a(I2CSendByte.o)
 .debug_abbrev  0x000098cc       0x25 c:/program files (x86)/microchip/xc32/v1.31/bin/../lib/gcc/pic32mx/4.5.2/../../../../pic32mx/lib/size\libmchp_peripheral_32MX695F512L.a(I2CSetFrequency.o)
 .debug_abbrev  0x000098f1       0x25 c:/program files (x86)/microchip/xc32/v1.31/bin/../lib/gcc/pic32mx/4.5.2/../../../../pic32mx/lib/size\libmchp_peripheral_32MX695F512L.a(I2CStart.o)
 .debug_abbrev  0x00009916       0x25 c:/program files (x86)/microchip/xc32/v1.31/bin/../lib/gcc/pic32mx/4.5.2/../../../../pic32mx/lib/size\libmchp_peripheral_32MX695F512L.a(I2CStop.o)
 .debug_abbrev  0x0000993b       0x25 c:/program files (x86)/microchip/xc32/v1.31/bin/../lib/gcc/pic32mx/4.5.2/../../../../pic32mx/lib/size\libmchp_peripheral_32MX695F512L.a(I2CTransmissionHasCompleted.o)
 .debug_abbrev  0x00009960       0x25 c:/program files (x86)/microchip/xc32/v1.31/bin/../lib/gcc/pic32mx/4.5.2/../../../../pic32mx/lib/size\libmchp_peripheral_32MX695F512L.a(I2CTransmitterIsReady.o)
 .debug_abbrev  0x00009985       0x25 c:/program files (x86)/microchip/xc32/v1.31/bin/../lib/gcc/pic32mx/4.5.2/../../../../pic32mx/lib/size\libmchp_peripheral_32MX695F512L.a(int_enable_interrupts_lib.o)
 .debug_abbrev  0x000099aa        0x1 c:/program files (x86)/microchip/xc32/v1.31/bin/../lib/gcc/pic32mx/4.5.2/../../../../pic32mx/lib/size\libmchp_peripheral_32MX695F512L.a(I2CPrivate.o)
 .debug_abbrev  0x000099ab      0x13f c:/program files (x86)/microchip/xc32/v1.31/bin/../lib/gcc/pic32mx/4.5.2/size\libgcc.a(_divdi3.o)
 .debug_abbrev  0x00009aea      0x132 c:/program files (x86)/microchip/xc32/v1.31/bin/../lib/gcc/pic32mx/4.5.2/size\libgcc.a(_udivdi3.o)
 .debug_abbrev  0x00009c1c       0x61 c:/program files (x86)/microchip/xc32/v1.31/bin/../lib/gcc/pic32mx/4.5.2/size\libgcc.a(floatunsisf.o)
 .debug_abbrev  0x00009c7d       0x23 c:/program files (x86)/microchip/xc32/v1.31/bin/../lib/gcc/pic32mx/4.5.2/../../../../pic32mx/lib/size\libpic32.a(default-bootstrap-exception-handler.o)
 .debug_abbrev  0x00009ca0       0x23 c:/program files (x86)/microchip/xc32/v1.31/bin/../lib/gcc/pic32mx/4.5.2/../../../../pic32mx/lib/size\libpic32.a(default-on-reset.o)
 .debug_abbrev  0x00009cc3       0x23 c:/program files (x86)/microchip/xc32/v1.31/bin/../lib/gcc/pic32mx/4.5.2/../../../../pic32mx/lib/size\libpic32.a(default-on-bootstrap.o)
 .debug_abbrev  0x00009ce6       0x23 c:/program files (x86)/microchip/xc32/v1.31/bin/../lib/gcc/pic32mx/4.5.2/../../../../pic32mx/lib/size\libm.a(w_sqrtf.o)
 .debug_abbrev  0x00009d09        0x1 c:/program files (x86)/microchip/xc32/v1.31/bin/../lib/gcc/pic32mx/4.5.2/../../../../pic32mx/lib/size\libm.a(s_lib_ver.o)
 .debug_abbrev  0x00009d0a        0x1 c:/program files (x86)/microchip/xc32/v1.31/bin/../lib/gcc/pic32mx/4.5.2/../../../../pic32mx/lib/size\libpic32.a(errno.o)
 .debug_abbrev  0x00009d0b       0x23 c:/program files (x86)/microchip/xc32/v1.31/bin/../lib/gcc/pic32mx/4.5.2/../../../../pic32mx/lib/size\libc.a(atoi.o)
 .debug_abbrev  0x00009d2e       0x23 c:/program files (x86)/microchip/xc32/v1.31/bin/../lib/gcc/pic32mx/4.5.2/../../../../pic32mx/lib/size\libc.a(atol.o)
 .debug_abbrev  0x00009d51        0x1 c:/program files (x86)/microchip/xc32/v1.31/bin/../lib/gcc/pic32mx/4.5.2/../../../../pic32mx/lib/size\libc.a(ctype.o)
 .debug_abbrev  0x00009d52       0x23 c:/program files (x86)/microchip/xc32/v1.31/bin/../lib/gcc/pic32mx/4.5.2/../../../../pic32mx/lib/size\libc.a(ctypef.o)
 .debug_abbrev  0x00009d75       0x23 c:/program files (x86)/microchip/xc32/v1.31/bin/../lib/gcc/pic32mx/4.5.2/../../../../pic32mx/lib/size\libc.a(ltoa.o)
 .debug_abbrev  0x00009d98       0x41 c:/program files (x86)/microchip/xc32/v1.31/bin/../lib/gcc/pic32mx/4.5.2/../../../../pic32mx/lib/size\libc.a(mktime.o)
 .debug_abbrev  0x00009dd9       0x23 c:/program files (x86)/microchip/xc32/v1.31/bin/../lib/gcc/pic32mx/4.5.2/../../../../pic32mx/lib/size\libc.a(strcat.o)
 .debug_abbrev  0x00009dfc       0x23 c:/program files (x86)/microchip/xc32/v1.31/bin/../lib/gcc/pic32mx/4.5.2/../../../../pic32mx/lib/size\libc.a(strchr.o)
 .debug_abbrev  0x00009e1f       0x23 c:/program files (x86)/microchip/xc32/v1.31/bin/../lib/gcc/pic32mx/4.5.2/../../../../pic32mx/lib/size\libc.a(strncmp.o)
 .debug_abbrev  0x00009e42       0x23 c:/program files (x86)/microchip/xc32/v1.31/bin/../lib/gcc/pic32mx/4.5.2/../../../../pic32mx/lib/size\libc.a(strncpy.o)
 .debug_abbrev  0x00009e65       0x23 c:/program files (x86)/microchip/xc32/v1.31/bin/../lib/gcc/pic32mx/4.5.2/../../../../pic32mx/lib/size\libc.a(strstr.o)
 .debug_abbrev  0x00009e88       0x23 c:/program files (x86)/microchip/xc32/v1.31/bin/../lib/gcc/pic32mx/4.5.2/../../../../pic32mx/lib/size\libc.a(sprintf_cdnopsuxX.eo)
 .debug_abbrev  0x00009eab       0x23 c:/program files (x86)/microchip/xc32/v1.31/bin/../lib/gcc/pic32mx/4.5.2/../../../../pic32mx/lib/size\libc.a(doprnt_cdnopsuxX.eo)
 .debug_abbrev  0x00009ece       0x23 c:/program files (x86)/microchip/xc32/v1.31/bin/../lib/gcc/pic32mx/4.5.2/../../../../pic32mx/lib/size\libc.a(_fputc_simple.o)
 .debug_abbrev  0x00009ef1        0x1 c:/program files (x86)/microchip/xc32/v1.31/bin/../lib/gcc/pic32mx/4.5.2/../../../../pic32mx/lib/size\libc.a(_iob.o)
 .debug_abbrev  0x00009ef2       0x23 c:/program files (x86)/microchip/xc32/v1.31/bin/../lib/gcc/pic32mx/4.5.2/../../../../pic32mx/lib/size\libc.a(_flsbuf_simple.o)
 .debug_abbrev  0x00009f15       0x23 c:/program files (x86)/microchip/xc32/v1.31/bin/../lib/gcc/pic32mx/4.5.2/../../../../pic32mx/lib/size\libpic32.a(write.o)
 .debug_abbrev  0x00009f38       0x23 c:/program files (x86)/microchip/xc32/v1.31/bin/../lib/gcc/pic32mx/4.5.2/../../../../pic32mx/lib/size\libpic32.a(_mon_putc.o)
 .debug_abbrev  0x00009f5b        0x1 c:/program files (x86)/microchip/xc32/v1.31/bin/../lib/gcc/pic32mx/4.5.2/../../../../pic32mx/lib/size\libpic32.a(xc32_uart.o)
 .debug_abbrev  0x00009f5c       0xe3 c:/program files (x86)/microchip/xc32/v1.31/bin/../lib/gcc/pic32mx/4.5.2/size\libgcc.a(_lshrdi3.o)
 .debug_abbrev  0x0000a03f      0x148 c:/program files (x86)/microchip/xc32/v1.31/bin/../lib/gcc/pic32mx/4.5.2/size\libgcc.a(_umoddi3.o)

.debug_line     0x00000000     0xd953
 *(.debug_line)
 .debug_line    0x00000000      0x3db build/default_-_avec_Bootloader/production/_ext/1472/HTTP_Teleinfo.o
 .debug_line    0x000003db      0x30b build/default_-_avec_Bootloader/production/_ext/1472/HTTP_Reseau.o
 .debug_line    0x000006e6      0x356 build/default_-_avec_Bootloader/production/_ext/1472/HTTP_Mynetmemo.o
 .debug_line    0x00000a3c      0x2be build/default_-_avec_Bootloader/production/_ext/1472/HTTP_Password.o
 .debug_line    0x00000cfa      0x2fc build/default_-_avec_Bootloader/production/_ext/1472/HTTP_log.o
 .debug_line    0x00000ff6      0x2dc build/default_-_avec_Bootloader/production/_ext/1472/HTTP_cmd.o
 .debug_line    0x000012d2      0x45d build/default_-_avec_Bootloader/production/_ext/1472/HTTP_Parametres.o
 .debug_line    0x0000172f      0x2f2 build/default_-_avec_Bootloader/production/_ext/1472/HTTP_Donnees.o
 .debug_line    0x00001a21      0x3bb build/default_-_avec_Bootloader/production/_ext/1472/HTTP_Index.o
 .debug_line    0x00001ddc      0x56c build/default_-_avec_Bootloader/production/_ext/1472/HTTP_ADTEK.o
 .debug_line    0x00002348      0x257 build/default_-_avec_Bootloader/production/_ext/1295770447/Announce.o
 .debug_line    0x0000259f      0x2a7 build/default_-_avec_Bootloader/production/_ext/1295770447/ARP.o
 .debug_line    0x00002846      0x1a2 build/default_-_avec_Bootloader/production/_ext/1295770447/Delay.o
 .debug_line    0x000029e8      0x3f0 build/default_-_avec_Bootloader/production/_ext/1295770447/DHCP.o
 .debug_line    0x00002dd8      0x123 build/default_-_avec_Bootloader/production/_ext/1295770447/DHCPs.o
 .debug_line    0x00002efb      0x32d build/default_-_avec_Bootloader/production/_ext/1295770447/DNS.o
 .debug_line    0x00003228      0x123 build/default_-_avec_Bootloader/production/_ext/1295770447/DynDNS.o
 .debug_line    0x0000334b      0x123 build/default_-_avec_Bootloader/production/_ext/1295770447/FTP.o
 .debug_line    0x0000346e      0x41a build/default_-_avec_Bootloader/production/_ext/1295770447/Hashes.o
 .debug_line    0x00003888      0x438 build/default_-_avec_Bootloader/production/_ext/1295770447/Helpers.o
 .debug_line    0x00003cc0      0x7d2 build/default_-_avec_Bootloader/production/_ext/1295770447/HTTP2.o
 .debug_line    0x00004492      0x20b build/default_-_avec_Bootloader/production/_ext/1295770447/ICMP.o
 .debug_line    0x0000469d      0x252 build/default_-_avec_Bootloader/production/_ext/1295770447/IP.o
 .debug_line    0x000048ef      0x375 build/default_-_avec_Bootloader/production/_ext/1295770447/MPFS2.o
 .debug_line    0x00004c64      0x285 build/default_-_avec_Bootloader/production/_ext/1295770447/NBNS.o
 .debug_line    0x00004ee9      0x4b9 build/default_-_avec_Bootloader/production/_ext/1295770447/SMTP.o
 .debug_line    0x000053a2      0x123 build/default_-_avec_Bootloader/production/_ext/1295770447/SNMP.o
 .debug_line    0x000054c5      0x123 build/default_-_avec_Bootloader/production/_ext/1295770447/SNTP.o
 .debug_line    0x000055e8      0x123 build/default_-_avec_Bootloader/production/_ext/1295770447/SPIEEPROM.o
 .debug_line    0x0000570b      0x123 build/default_-_avec_Bootloader/production/_ext/1295770447/SPIFlash.o
 .debug_line    0x0000582e      0x123 build/default_-_avec_Bootloader/production/_ext/1295770447/SPIRAM.o
 .debug_line    0x00005951      0x26e build/default_-_avec_Bootloader/production/_ext/1295770447/StackTsk.o
 .debug_line    0x00005bbf      0xc50 build/default_-_avec_Bootloader/production/_ext/1295770447/TCP.o
 .debug_line    0x0000680f      0x123 build/default_-_avec_Bootloader/production/_ext/1295770447/Telnet.o
 .debug_line    0x00006932      0x123 build/default_-_avec_Bootloader/production/_ext/1295770447/TFTPc.o
 .debug_line    0x00006a55      0x1ef build/default_-_avec_Bootloader/production/_ext/1295770447/Tick.o
 .debug_line    0x00006c44      0x123 build/default_-_avec_Bootloader/production/_ext/1295770447/UART.o
 .debug_line    0x00006d67      0x393 build/default_-_avec_Bootloader/production/_ext/1295770447/UDP.o
 .debug_line    0x000070fa      0x174 build/default_-_avec_Bootloader/production/_ext/1472/MPFSImg2.o
 .debug_line    0x0000726e      0x225 build/default_-_avec_Bootloader/production/_ext/1295770447/Random.o
 .debug_line    0x00007493      0x123 build/default_-_avec_Bootloader/production/_ext/1295770447/RSA.o
 .debug_line    0x000075b6      0x8b4 build/default_-_avec_Bootloader/production/_ext/1295770447/SSL.o
 .debug_line    0x00007e6a      0x21f build/default_-_avec_Bootloader/production/_ext/1295770447/ARCFOUR.o
 .debug_line    0x00008089      0x123 build/default_-_avec_Bootloader/production/_ext/1295770447/BigInt.o
 .debug_line    0x000081ac      0x123 build/default_-_avec_Bootloader/production/_ext/1295770447/AutoIP.o
 .debug_line    0x000082cf      0x123 build/default_-_avec_Bootloader/production/_ext/1295770447/DNSs.o
 .debug_line    0x000083f2      0x5df build/default_-_avec_Bootloader/production/_ext/1295770447/ENCX24J600.o
 .debug_line    0x000089d1      0x123 build/default_-_avec_Bootloader/production/_ext/1295770447/ETHPIC32ExtPhy.o
 .debug_line    0x00008af4      0x123 build/default_-_avec_Bootloader/production/_ext/1295770447/ETHPIC32ExtPhyDP83848.o
 .debug_line    0x00008c17      0x123 build/default_-_avec_Bootloader/production/_ext/1295770447/ETHPIC32IntMac.o
 .debug_line    0x00008d3a      0x25d build/default_-_avec_Bootloader/production/_ext/1472/rs232.o
 .debug_line    0x00008f97      0x2e1 build/default_-_avec_Bootloader/production/_ext/1472/Mynetmemo.o
 .debug_line    0x00009278      0x45b build/default_-_avec_Bootloader/production/_ext/1472/Eeprom_i2c.o
 .debug_line    0x000096d3      0x26e build/default_-_avec_Bootloader/production/_ext/1472/Temperature.o
 .debug_line    0x00009941      0x43b build/default_-_avec_Bootloader/production/_ext/1472/Teleinfo.o
 .debug_line    0x00009d7c      0x213 build/default_-_avec_Bootloader/production/_ext/1472/log.o
 .debug_line    0x00009f8f      0x173 build/default_-_avec_Bootloader/production/_ext/1472/SSLCert.o
 .debug_line    0x0000a102      0x391 build/default_-_avec_Bootloader/production/_ext/1472/divers.o
 .debug_line    0x0000a493      0x2be build/default_-_avec_Bootloader/production/_ext/1472/SST25VF016.o
 .debug_line    0x0000a751      0x1bf build/default_-_avec_Bootloader/production/_ext/1472/drv_spi.o
 .debug_line    0x0000a910      0x311 build/default_-_avec_Bootloader/production/_ext/1472/mcp7941.o
 .debug_line    0x0000ac21      0x3de build/default_-_avec_Bootloader/production/_ext/1472/RTC.o
 .debug_line    0x0000afff      0x4ea build/default_-_avec_Bootloader/production/_ext/1472/0_SparkBox.o
 .debug_line    0x0000b4e9      0x224 build/default_-_avec_Bootloader/production/_ext/1472/Lcd.o
 .debug_line    0x0000b70d      0x26b build/default_-_avec_Bootloader/production/_ext/1472/Analogique.o
 .debug_line    0x0000b978      0x30e build/default_-_avec_Bootloader/production/_ext/1472/Evse.o
 .debug_line    0x0000bc86      0x1e2 build/default_-_avec_Bootloader/production/_ext/1472/i2c.o
 .debug_line    0x0000be68      0x25e build/default_-_avec_Bootloader/production/_ext/1472/BD_sst.o
 .debug_line    0x0000c0c6       0xbf c:/program files (x86)/microchip/xc32/v1.31/bin/../lib/gcc/pic32mx/4.5.2/../../../../pic32mx/lib/size\libmchp_peripheral_32MX695F512L.a(soft_reset_lib.o)
 .debug_line    0x0000c185       0x62 c:/program files (x86)/microchip/xc32/v1.31/bin/../lib/gcc/pic32mx/4.5.2/../../../../pic32mx/lib/size\libmchp_peripheral_32MX695F512L.a(pcache.o)
 .debug_line    0x0000c1e7       0x73 c:/program files (x86)/microchip/xc32/v1.31/bin/../lib/gcc/pic32mx/4.5.2/../../../../pic32mx/lib/size\libmchp_peripheral_32MX695F512L.a(int_disable_interrupts_lib.o)
 .debug_line    0x0000c25a       0x73 c:/program files (x86)/microchip/xc32/v1.31/bin/../lib/gcc/pic32mx/4.5.2/../../../../pic32mx/lib/size\libmchp_peripheral_32MX695F512L.a(int_restore_interrupts_lib.o)
 .debug_line    0x0000c2cd       0x6e c:/program files (x86)/microchip/xc32/v1.31/bin/../lib/gcc/pic32mx/4.5.2/../../../../pic32mx/lib/size\libmchp_peripheral_32MX695F512L.a(int_enable_mv_int_lib.o)
 .debug_line    0x0000c33b       0x64 c:/program files (x86)/microchip/xc32/v1.31/bin/../lib/gcc/pic32mx/4.5.2/../../../../pic32mx/lib/size\libmchp_peripheral_32MX695F512L.a(int_tbl_lib.o)
 .debug_line    0x0000c39f       0x62 c:/program files (x86)/microchip/xc32/v1.31/bin/../lib/gcc/pic32mx/4.5.2/../../../../pic32mx/lib/size\libmchp_peripheral_32MX695F512L.a(uart_lib.o)
 .debug_line    0x0000c401       0x6b c:/program files (x86)/microchip/xc32/v1.31/bin/../lib/gcc/pic32mx/4.5.2/../../../../pic32mx/lib/size\libmchp_peripheral_32MX695F512L.a(I2CAcknowledgeByte.o)
 .debug_line    0x0000c46c       0x65 c:/program files (x86)/microchip/xc32/v1.31/bin/../lib/gcc/pic32mx/4.5.2/../../../../pic32mx/lib/size\libmchp_peripheral_32MX695F512L.a(I2CBusIsIdle.o)
 .debug_line    0x0000c4d1       0x6f c:/program files (x86)/microchip/xc32/v1.31/bin/../lib/gcc/pic32mx/4.5.2/../../../../pic32mx/lib/size\libmchp_peripheral_32MX695F512L.a(I2CByteWasAcknowledged.o)
 .debug_line    0x0000c540       0x62 c:/program files (x86)/microchip/xc32/v1.31/bin/../lib/gcc/pic32mx/4.5.2/../../../../pic32mx/lib/size\libmchp_peripheral_32MX695F512L.a(I2CEnable.o)
 .debug_line    0x0000c5a2       0x63 c:/program files (x86)/microchip/xc32/v1.31/bin/../lib/gcc/pic32mx/4.5.2/../../../../pic32mx/lib/size\libmchp_peripheral_32MX695F512L.a(I2CGetByte.o)
 .debug_line    0x0000c605       0x65 c:/program files (x86)/microchip/xc32/v1.31/bin/../lib/gcc/pic32mx/4.5.2/../../../../pic32mx/lib/size\libmchp_peripheral_32MX695F512L.a(I2CGetStatus.o)
 .debug_line    0x0000c66a       0x73 c:/program files (x86)/microchip/xc32/v1.31/bin/../lib/gcc/pic32mx/4.5.2/../../../../pic32mx/lib/size\libmchp_peripheral_32MX695F512L.a(I2CReceivedDataIsAvailable.o)
 .debug_line    0x0000c6dd       0x6a c:/program files (x86)/microchip/xc32/v1.31/bin/../lib/gcc/pic32mx/4.5.2/../../../../pic32mx/lib/size\libmchp_peripheral_32MX695F512L.a(I2CReceiverEnable.o)
 .debug_line    0x0000c747       0x67 c:/program files (x86)/microchip/xc32/v1.31/bin/../lib/gcc/pic32mx/4.5.2/../../../../pic32mx/lib/size\libmchp_peripheral_32MX695F512L.a(I2CRepeatStart.o)
 .debug_line    0x0000c7ae       0x64 c:/program files (x86)/microchip/xc32/v1.31/bin/../lib/gcc/pic32mx/4.5.2/../../../../pic32mx/lib/size\libmchp_peripheral_32MX695F512L.a(I2CSendByte.o)
 .debug_line    0x0000c812       0x68 c:/program files (x86)/microchip/xc32/v1.31/bin/../lib/gcc/pic32mx/4.5.2/../../../../pic32mx/lib/size\libmchp_peripheral_32MX695F512L.a(I2CSetFrequency.o)
 .debug_line    0x0000c87a       0x61 c:/program files (x86)/microchip/xc32/v1.31/bin/../lib/gcc/pic32mx/4.5.2/../../../../pic32mx/lib/size\libmchp_peripheral_32MX695F512L.a(I2CStart.o)
 .debug_line    0x0000c8db       0x60 c:/program files (x86)/microchip/xc32/v1.31/bin/../lib/gcc/pic32mx/4.5.2/../../../../pic32mx/lib/size\libmchp_peripheral_32MX695F512L.a(I2CStop.o)
 .debug_line    0x0000c93b       0x74 c:/program files (x86)/microchip/xc32/v1.31/bin/../lib/gcc/pic32mx/4.5.2/../../../../pic32mx/lib/size\libmchp_peripheral_32MX695F512L.a(I2CTransmissionHasCompleted.o)
 .debug_line    0x0000c9af       0x6e c:/program files (x86)/microchip/xc32/v1.31/bin/../lib/gcc/pic32mx/4.5.2/../../../../pic32mx/lib/size\libmchp_peripheral_32MX695F512L.a(I2CTransmitterIsReady.o)
 .debug_line    0x0000ca1d       0x72 c:/program files (x86)/microchip/xc32/v1.31/bin/../lib/gcc/pic32mx/4.5.2/../../../../pic32mx/lib/size\libmchp_peripheral_32MX695F512L.a(int_enable_interrupts_lib.o)
 .debug_line    0x0000ca8f        0x0 c:/program files (x86)/microchip/xc32/v1.31/bin/../lib/gcc/pic32mx/4.5.2/../../../../pic32mx/lib/size\libmchp_peripheral_32MX695F512L.a(I2CPrivate.o)
 .debug_line    0x0000ca8f      0x15e c:/program files (x86)/microchip/xc32/v1.31/bin/../lib/gcc/pic32mx/4.5.2/size\libgcc.a(_divdi3.o)
 .debug_line    0x0000cbed      0x158 c:/program files (x86)/microchip/xc32/v1.31/bin/../lib/gcc/pic32mx/4.5.2/size\libgcc.a(_udivdi3.o)
 .debug_line    0x0000cd45       0x8e c:/program files (x86)/microchip/xc32/v1.31/bin/../lib/gcc/pic32mx/4.5.2/size\libgcc.a(floatunsisf.o)
 .debug_line    0x0000cdd3       0x97 c:/program files (x86)/microchip/xc32/v1.31/bin/../lib/gcc/pic32mx/4.5.2/../../../../pic32mx/lib/size\libpic32.a(default-bootstrap-exception-handler.o)
 .debug_line    0x0000ce6a       0x84 c:/program files (x86)/microchip/xc32/v1.31/bin/../lib/gcc/pic32mx/4.5.2/../../../../pic32mx/lib/size\libpic32.a(default-on-reset.o)
 .debug_line    0x0000ceee       0x88 c:/program files (x86)/microchip/xc32/v1.31/bin/../lib/gcc/pic32mx/4.5.2/../../../../pic32mx/lib/size\libpic32.a(default-on-bootstrap.o)
 .debug_line    0x0000cf76       0x78 c:/program files (x86)/microchip/xc32/v1.31/bin/../lib/gcc/pic32mx/4.5.2/../../../../pic32mx/lib/size\libm.a(w_sqrtf.o)
 .debug_line    0x0000cfee        0x0 c:/program files (x86)/microchip/xc32/v1.31/bin/../lib/gcc/pic32mx/4.5.2/../../../../pic32mx/lib/size\libm.a(s_lib_ver.o)
 .debug_line    0x0000cfee        0x0 c:/program files (x86)/microchip/xc32/v1.31/bin/../lib/gcc/pic32mx/4.5.2/../../../../pic32mx/lib/size\libpic32.a(errno.o)
 .debug_line    0x0000cfee       0x6e c:/program files (x86)/microchip/xc32/v1.31/bin/../lib/gcc/pic32mx/4.5.2/../../../../pic32mx/lib/size\libc.a(atoi.o)
 .debug_line    0x0000d05c       0x6e c:/program files (x86)/microchip/xc32/v1.31/bin/../lib/gcc/pic32mx/4.5.2/../../../../pic32mx/lib/size\libc.a(atol.o)
 .debug_line    0x0000d0ca        0x0 c:/program files (x86)/microchip/xc32/v1.31/bin/../lib/gcc/pic32mx/4.5.2/../../../../pic32mx/lib/size\libc.a(ctype.o)
 .debug_line    0x0000d0ca       0x70 c:/program files (x86)/microchip/xc32/v1.31/bin/../lib/gcc/pic32mx/4.5.2/../../../../pic32mx/lib/size\libc.a(ctypef.o)
 .debug_line    0x0000d13a       0x6e c:/program files (x86)/microchip/xc32/v1.31/bin/../lib/gcc/pic32mx/4.5.2/../../../../pic32mx/lib/size\libc.a(ltoa.o)
 .debug_line    0x0000d1a8       0x70 c:/program files (x86)/microchip/xc32/v1.31/bin/../lib/gcc/pic32mx/4.5.2/../../../../pic32mx/lib/size\libc.a(mktime.o)
 .debug_line    0x0000d218       0x70 c:/program files (x86)/microchip/xc32/v1.31/bin/../lib/gcc/pic32mx/4.5.2/../../../../pic32mx/lib/size\libc.a(strcat.o)
 .debug_line    0x0000d288       0x70 c:/program files (x86)/microchip/xc32/v1.31/bin/../lib/gcc/pic32mx/4.5.2/../../../../pic32mx/lib/size\libc.a(strchr.o)
 .debug_line    0x0000d2f8       0x71 c:/program files (x86)/microchip/xc32/v1.31/bin/../lib/gcc/pic32mx/4.5.2/../../../../pic32mx/lib/size\libc.a(strncmp.o)
 .debug_line    0x0000d369       0x71 c:/program files (x86)/microchip/xc32/v1.31/bin/../lib/gcc/pic32mx/4.5.2/../../../../pic32mx/lib/size\libc.a(strncpy.o)
 .debug_line    0x0000d3da       0x70 c:/program files (x86)/microchip/xc32/v1.31/bin/../lib/gcc/pic32mx/4.5.2/../../../../pic32mx/lib/size\libc.a(strstr.o)
 .debug_line    0x0000d44a       0x71 c:/program files (x86)/microchip/xc32/v1.31/bin/../lib/gcc/pic32mx/4.5.2/../../../../pic32mx/lib/size\libc.a(sprintf_cdnopsuxX.eo)
 .debug_line    0x0000d4bb       0x70 c:/program files (x86)/microchip/xc32/v1.31/bin/../lib/gcc/pic32mx/4.5.2/../../../../pic32mx/lib/size\libc.a(doprnt_cdnopsuxX.eo)
 .debug_line    0x0000d52b       0x6f c:/program files (x86)/microchip/xc32/v1.31/bin/../lib/gcc/pic32mx/4.5.2/../../../../pic32mx/lib/size\libc.a(_fputc_simple.o)
 .debug_line    0x0000d59a        0x0 c:/program files (x86)/microchip/xc32/v1.31/bin/../lib/gcc/pic32mx/4.5.2/../../../../pic32mx/lib/size\libc.a(_iob.o)
 .debug_line    0x0000d59a       0x70 c:/program files (x86)/microchip/xc32/v1.31/bin/../lib/gcc/pic32mx/4.5.2/../../../../pic32mx/lib/size\libc.a(_flsbuf_simple.o)
 .debug_line    0x0000d60a       0x79 c:/program files (x86)/microchip/xc32/v1.31/bin/../lib/gcc/pic32mx/4.5.2/../../../../pic32mx/lib/size\libpic32.a(write.o)
 .debug_line    0x0000d683       0x7d c:/program files (x86)/microchip/xc32/v1.31/bin/../lib/gcc/pic32mx/4.5.2/../../../../pic32mx/lib/size\libpic32.a(_mon_putc.o)
 .debug_line    0x0000d700        0x0 c:/program files (x86)/microchip/xc32/v1.31/bin/../lib/gcc/pic32mx/4.5.2/../../../../pic32mx/lib/size\libpic32.a(xc32_uart.o)
 .debug_line    0x0000d700       0xfa c:/program files (x86)/microchip/xc32/v1.31/bin/../lib/gcc/pic32mx/4.5.2/size\libgcc.a(_lshrdi3.o)
 .debug_line    0x0000d7fa      0x159 c:/program files (x86)/microchip/xc32/v1.31/bin/../lib/gcc/pic32mx/4.5.2/size\libgcc.a(_umoddi3.o)

.debug_frame    0x00000000     0x4008
 *(.debug_frame)
 .debug_frame   0x00000000       0x48 build/default_-_avec_Bootloader/production/_ext/1472/HTTP_Teleinfo.o
 .debug_frame   0x00000048       0x94 build/default_-_avec_Bootloader/production/_ext/1472/HTTP_Reseau.o
 .debug_frame   0x000000dc       0xd8 build/default_-_avec_Bootloader/production/_ext/1472/HTTP_Mynetmemo.o
 .debug_frame   0x000001b4       0x4c build/default_-_avec_Bootloader/production/_ext/1472/HTTP_Password.o
 .debug_frame   0x00000200       0x84 build/default_-_avec_Bootloader/production/_ext/1472/HTTP_log.o
 .debug_frame   0x00000284       0xa0 build/default_-_avec_Bootloader/production/_ext/1472/HTTP_cmd.o
 .debug_frame   0x00000324       0xe8 build/default_-_avec_Bootloader/production/_ext/1472/HTTP_Parametres.o
 .debug_frame   0x0000040c       0x90 build/default_-_avec_Bootloader/production/_ext/1472/HTTP_Donnees.o
 .debug_frame   0x0000049c      0x258 build/default_-_avec_Bootloader/production/_ext/1472/HTTP_Index.o
 .debug_frame   0x000006f4      0x358 build/default_-_avec_Bootloader/production/_ext/1472/HTTP_ADTEK.o
 .debug_frame   0x00000a4c       0x48 build/default_-_avec_Bootloader/production/_ext/1295770447/Announce.o
 .debug_frame   0x00000a94       0xb8 build/default_-_avec_Bootloader/production/_ext/1295770447/ARP.o
 .debug_frame   0x00000b4c       0x40 build/default_-_avec_Bootloader/production/_ext/1295770447/Delay.o
 .debug_frame   0x00000b8c      0x10c build/default_-_avec_Bootloader/production/_ext/1295770447/DHCP.o
 .debug_frame   0x00000c98       0xac build/default_-_avec_Bootloader/production/_ext/1295770447/DNS.o
 .debug_frame   0x00000d44      0x11c build/default_-_avec_Bootloader/production/_ext/1295770447/Hashes.o
 .debug_frame   0x00000e60      0x180 build/default_-_avec_Bootloader/production/_ext/1295770447/Helpers.o
 .debug_frame   0x00000fe0      0x16c build/default_-_avec_Bootloader/production/_ext/1295770447/HTTP2.o
 .debug_frame   0x0000114c       0x2c build/default_-_avec_Bootloader/production/_ext/1295770447/ICMP.o
 .debug_frame   0x00001178       0x60 build/default_-_avec_Bootloader/production/_ext/1295770447/IP.o
 .debug_frame   0x000011d8      0x1e0 build/default_-_avec_Bootloader/production/_ext/1295770447/MPFS2.o
 .debug_frame   0x000013b8       0x38 build/default_-_avec_Bootloader/production/_ext/1295770447/NBNS.o
 .debug_frame   0x000013f0      0x124 build/default_-_avec_Bootloader/production/_ext/1295770447/SMTP.o
 .debug_frame   0x00001514       0x64 build/default_-_avec_Bootloader/production/_ext/1295770447/StackTsk.o
 .debug_frame   0x00001578      0x52c build/default_-_avec_Bootloader/production/_ext/1295770447/TCP.o
 .debug_frame   0x00001aa4       0xb0 build/default_-_avec_Bootloader/production/_ext/1295770447/Tick.o
 .debug_frame   0x00001b54      0x1c4 build/default_-_avec_Bootloader/production/_ext/1295770447/UDP.o
 .debug_frame   0x00001d18       0x5c build/default_-_avec_Bootloader/production/_ext/1295770447/Random.o
 .debug_frame   0x00001d74      0x428 build/default_-_avec_Bootloader/production/_ext/1295770447/SSL.o
 .debug_frame   0x0000219c       0x30 build/default_-_avec_Bootloader/production/_ext/1295770447/ARCFOUR.o
 .debug_frame   0x000021cc      0x474 build/default_-_avec_Bootloader/production/_ext/1295770447/ENCX24J600.o
 .debug_frame   0x00002640      0x130 build/default_-_avec_Bootloader/production/_ext/1472/rs232.o
 .debug_frame   0x00002770       0x7c build/default_-_avec_Bootloader/production/_ext/1472/Mynetmemo.o
 .debug_frame   0x000027ec      0x218 build/default_-_avec_Bootloader/production/_ext/1472/Eeprom_i2c.o
 .debug_frame   0x00002a04       0x74 build/default_-_avec_Bootloader/production/_ext/1472/Temperature.o
 .debug_frame   0x00002a78      0x184 build/default_-_avec_Bootloader/production/_ext/1472/Teleinfo.o
 .debug_frame   0x00002bfc       0x54 build/default_-_avec_Bootloader/production/_ext/1472/log.o
 .debug_frame   0x00002c50      0x154 build/default_-_avec_Bootloader/production/_ext/1472/divers.o
 .debug_frame   0x00002da4      0x170 build/default_-_avec_Bootloader/production/_ext/1472/SST25VF016.o
 .debug_frame   0x00002f14       0x60 build/default_-_avec_Bootloader/production/_ext/1472/drv_spi.o
 .debug_frame   0x00002f74      0x204 build/default_-_avec_Bootloader/production/_ext/1472/mcp7941.o
 .debug_frame   0x00003178       0xf4 build/default_-_avec_Bootloader/production/_ext/1472/RTC.o
 .debug_frame   0x0000326c       0xbc build/default_-_avec_Bootloader/production/_ext/1472/0_SparkBox.o
 .debug_frame   0x00003328       0xf0 build/default_-_avec_Bootloader/production/_ext/1472/Lcd.o
 .debug_frame   0x00003418       0x9c build/default_-_avec_Bootloader/production/_ext/1472/Analogique.o
 .debug_frame   0x000034b4      0x14c build/default_-_avec_Bootloader/production/_ext/1472/Evse.o
 .debug_frame   0x00003600       0x84 build/default_-_avec_Bootloader/production/_ext/1472/i2c.o
 .debug_frame   0x00003684       0xb8 build/default_-_avec_Bootloader/production/_ext/1472/BD_sst.o
 .debug_frame   0x0000373c       0x28 c:/program files (x86)/microchip/xc32/v1.31/bin/../lib/gcc/pic32mx/4.5.2/../../../../pic32mx/lib/size\libmchp_peripheral_32MX695F512L.a(soft_reset_lib.o)
 .debug_frame   0x00003764       0x30 c:/program files (x86)/microchip/xc32/v1.31/bin/../lib/gcc/pic32mx/4.5.2/../../../../pic32mx/lib/size\libmchp_peripheral_32MX695F512L.a(pcache.o)
 .debug_frame   0x00003794       0x20 c:/program files (x86)/microchip/xc32/v1.31/bin/../lib/gcc/pic32mx/4.5.2/../../../../pic32mx/lib/size\libmchp_peripheral_32MX695F512L.a(int_disable_interrupts_lib.o)
 .debug_frame   0x000037b4       0x20 c:/program files (x86)/microchip/xc32/v1.31/bin/../lib/gcc/pic32mx/4.5.2/../../../../pic32mx/lib/size\libmchp_peripheral_32MX695F512L.a(int_restore_interrupts_lib.o)
 .debug_frame   0x000037d4       0x28 c:/program files (x86)/microchip/xc32/v1.31/bin/../lib/gcc/pic32mx/4.5.2/../../../../pic32mx/lib/size\libmchp_peripheral_32MX695F512L.a(int_enable_mv_int_lib.o)
 .debug_frame   0x000037fc       0xa0 c:/program files (x86)/microchip/xc32/v1.31/bin/../lib/gcc/pic32mx/4.5.2/../../../../pic32mx/lib/size\libmchp_peripheral_32MX695F512L.a(int_tbl_lib.o)
 .debug_frame   0x0000389c       0x90 c:/program files (x86)/microchip/xc32/v1.31/bin/../lib/gcc/pic32mx/4.5.2/../../../../pic32mx/lib/size\libmchp_peripheral_32MX695F512L.a(uart_lib.o)
 .debug_frame   0x0000392c       0x20 c:/program files (x86)/microchip/xc32/v1.31/bin/../lib/gcc/pic32mx/4.5.2/../../../../pic32mx/lib/size\libmchp_peripheral_32MX695F512L.a(I2CAcknowledgeByte.o)
 .debug_frame   0x0000394c       0x20 c:/program files (x86)/microchip/xc32/v1.31/bin/../lib/gcc/pic32mx/4.5.2/../../../../pic32mx/lib/size\libmchp_peripheral_32MX695F512L.a(I2CBusIsIdle.o)
 .debug_frame   0x0000396c       0x20 c:/program files (x86)/microchip/xc32/v1.31/bin/../lib/gcc/pic32mx/4.5.2/../../../../pic32mx/lib/size\libmchp_peripheral_32MX695F512L.a(I2CByteWasAcknowledged.o)
 .debug_frame   0x0000398c       0x20 c:/program files (x86)/microchip/xc32/v1.31/bin/../lib/gcc/pic32mx/4.5.2/../../../../pic32mx/lib/size\libmchp_peripheral_32MX695F512L.a(I2CEnable.o)
 .debug_frame   0x000039ac       0x20 c:/program files (x86)/microchip/xc32/v1.31/bin/../lib/gcc/pic32mx/4.5.2/../../../../pic32mx/lib/size\libmchp_peripheral_32MX695F512L.a(I2CGetByte.o)
 .debug_frame   0x000039cc       0x20 c:/program files (x86)/microchip/xc32/v1.31/bin/../lib/gcc/pic32mx/4.5.2/../../../../pic32mx/lib/size\libmchp_peripheral_32MX695F512L.a(I2CGetStatus.o)
 .debug_frame   0x000039ec       0x20 c:/program files (x86)/microchip/xc32/v1.31/bin/../lib/gcc/pic32mx/4.5.2/../../../../pic32mx/lib/size\libmchp_peripheral_32MX695F512L.a(I2CReceivedDataIsAvailable.o)
 .debug_frame   0x00003a0c       0x20 c:/program files (x86)/microchip/xc32/v1.31/bin/../lib/gcc/pic32mx/4.5.2/../../../../pic32mx/lib/size\libmchp_peripheral_32MX695F512L.a(I2CReceiverEnable.o)
 .debug_frame   0x00003a2c       0x20 c:/program files (x86)/microchip/xc32/v1.31/bin/../lib/gcc/pic32mx/4.5.2/../../../../pic32mx/lib/size\libmchp_peripheral_32MX695F512L.a(I2CRepeatStart.o)
 .debug_frame   0x00003a4c       0x20 c:/program files (x86)/microchip/xc32/v1.31/bin/../lib/gcc/pic32mx/4.5.2/../../../../pic32mx/lib/size\libmchp_peripheral_32MX695F512L.a(I2CSendByte.o)
 .debug_frame   0x00003a6c       0x20 c:/program files (x86)/microchip/xc32/v1.31/bin/../lib/gcc/pic32mx/4.5.2/../../../../pic32mx/lib/size\libmchp_peripheral_32MX695F512L.a(I2CSetFrequency.o)
 .debug_frame   0x00003a8c       0x20 c:/program files (x86)/microchip/xc32/v1.31/bin/../lib/gcc/pic32mx/4.5.2/../../../../pic32mx/lib/size\libmchp_peripheral_32MX695F512L.a(I2CStart.o)
 .debug_frame   0x00003aac       0x20 c:/program files (x86)/microchip/xc32/v1.31/bin/../lib/gcc/pic32mx/4.5.2/../../../../pic32mx/lib/size\libmchp_peripheral_32MX695F512L.a(I2CStop.o)
 .debug_frame   0x00003acc       0x20 c:/program files (x86)/microchip/xc32/v1.31/bin/../lib/gcc/pic32mx/4.5.2/../../../../pic32mx/lib/size\libmchp_peripheral_32MX695F512L.a(I2CTransmissionHasCompleted.o)
 .debug_frame   0x00003aec       0x20 c:/program files (x86)/microchip/xc32/v1.31/bin/../lib/gcc/pic32mx/4.5.2/../../../../pic32mx/lib/size\libmchp_peripheral_32MX695F512L.a(I2CTransmitterIsReady.o)
 .debug_frame   0x00003b0c       0x20 c:/program files (x86)/microchip/xc32/v1.31/bin/../lib/gcc/pic32mx/4.5.2/../../../../pic32mx/lib/size\libmchp_peripheral_32MX695F512L.a(int_enable_interrupts_lib.o)
 .debug_frame   0x00003b2c       0x20 c:/program files (x86)/microchip/xc32/v1.31/bin/../lib/gcc/pic32mx/4.5.2/size\libgcc.a(_divdi3.o)
 .debug_frame   0x00003b4c       0x20 c:/program files (x86)/microchip/xc32/v1.31/bin/../lib/gcc/pic32mx/4.5.2/size\libgcc.a(_udivdi3.o)
 .debug_frame   0x00003b6c       0x28 c:/program files (x86)/microchip/xc32/v1.31/bin/../lib/gcc/pic32mx/4.5.2/size\libgcc.a(floatunsisf.o)
 .debug_frame   0x00003b94       0x28 c:/program files (x86)/microchip/xc32/v1.31/bin/../lib/gcc/pic32mx/4.5.2/../../../../pic32mx/lib/size\libpic32.a(default-bootstrap-exception-handler.o)
 .debug_frame   0x00003bbc       0x20 c:/program files (x86)/microchip/xc32/v1.31/bin/../lib/gcc/pic32mx/4.5.2/../../../../pic32mx/lib/size\libpic32.a(default-on-reset.o)
 .debug_frame   0x00003bdc       0x20 c:/program files (x86)/microchip/xc32/v1.31/bin/../lib/gcc/pic32mx/4.5.2/../../../../pic32mx/lib/size\libpic32.a(default-on-bootstrap.o)
 .debug_frame   0x00003bfc       0x28 c:/program files (x86)/microchip/xc32/v1.31/bin/../lib/gcc/pic32mx/4.5.2/../../../../pic32mx/lib/size\libm.a(w_sqrtf.o)
 .debug_frame   0x00003c24       0x20 c:/program files (x86)/microchip/xc32/v1.31/bin/../lib/gcc/pic32mx/4.5.2/../../../../pic32mx/lib/size\libc.a(atoi.o)
 .debug_frame   0x00003c44       0x20 c:/program files (x86)/microchip/xc32/v1.31/bin/../lib/gcc/pic32mx/4.5.2/../../../../pic32mx/lib/size\libc.a(atol.o)
 .debug_frame   0x00003c64      0x120 c:/program files (x86)/microchip/xc32/v1.31/bin/../lib/gcc/pic32mx/4.5.2/../../../../pic32mx/lib/size\libc.a(ctypef.o)
 .debug_frame   0x00003d84       0x38 c:/program files (x86)/microchip/xc32/v1.31/bin/../lib/gcc/pic32mx/4.5.2/../../../../pic32mx/lib/size\libc.a(ltoa.o)
 .debug_frame   0x00003dbc       0x5c c:/program files (x86)/microchip/xc32/v1.31/bin/../lib/gcc/pic32mx/4.5.2/../../../../pic32mx/lib/size\libc.a(mktime.o)
 .debug_frame   0x00003e18       0x20 c:/program files (x86)/microchip/xc32/v1.31/bin/../lib/gcc/pic32mx/4.5.2/../../../../pic32mx/lib/size\libc.a(strcat.o)
 .debug_frame   0x00003e38       0x20 c:/program files (x86)/microchip/xc32/v1.31/bin/../lib/gcc/pic32mx/4.5.2/../../../../pic32mx/lib/size\libc.a(strchr.o)
 .debug_frame   0x00003e58       0x20 c:/program files (x86)/microchip/xc32/v1.31/bin/../lib/gcc/pic32mx/4.5.2/../../../../pic32mx/lib/size\libc.a(strncmp.o)
 .debug_frame   0x00003e78       0x20 c:/program files (x86)/microchip/xc32/v1.31/bin/../lib/gcc/pic32mx/4.5.2/../../../../pic32mx/lib/size\libc.a(strncpy.o)
 .debug_frame   0x00003e98       0x2c c:/program files (x86)/microchip/xc32/v1.31/bin/../lib/gcc/pic32mx/4.5.2/../../../../pic32mx/lib/size\libc.a(strstr.o)
 .debug_frame   0x00003ec4       0x2c c:/program files (x86)/microchip/xc32/v1.31/bin/../lib/gcc/pic32mx/4.5.2/../../../../pic32mx/lib/size\libc.a(sprintf_cdnopsuxX.eo)
 .debug_frame   0x00003ef0       0x38 c:/program files (x86)/microchip/xc32/v1.31/bin/../lib/gcc/pic32mx/4.5.2/../../../../pic32mx/lib/size\libc.a(doprnt_cdnopsuxX.eo)
 .debug_frame   0x00003f28       0x2c c:/program files (x86)/microchip/xc32/v1.31/bin/../lib/gcc/pic32mx/4.5.2/../../../../pic32mx/lib/size\libc.a(_fputc_simple.o)
 .debug_frame   0x00003f54       0x28 c:/program files (x86)/microchip/xc32/v1.31/bin/../lib/gcc/pic32mx/4.5.2/../../../../pic32mx/lib/size\libc.a(_flsbuf_simple.o)
 .debug_frame   0x00003f7c       0x2c c:/program files (x86)/microchip/xc32/v1.31/bin/../lib/gcc/pic32mx/4.5.2/../../../../pic32mx/lib/size\libpic32.a(write.o)
 .debug_frame   0x00003fa8       0x20 c:/program files (x86)/microchip/xc32/v1.31/bin/../lib/gcc/pic32mx/4.5.2/../../../../pic32mx/lib/size\libpic32.a(_mon_putc.o)
 .debug_frame   0x00003fc8       0x20 c:/program files (x86)/microchip/xc32/v1.31/bin/../lib/gcc/pic32mx/4.5.2/size\libgcc.a(_lshrdi3.o)
 .debug_frame   0x00003fe8       0x20 c:/program files (x86)/microchip/xc32/v1.31/bin/../lib/gcc/pic32mx/4.5.2/size\libgcc.a(_umoddi3.o)

.debug_str      0x00000000     0x6002
 *(.debug_str)
 .debug_str     0x00000000      0x161 build/default_-_avec_Bootloader/production/_ext/1472/HTTP_Teleinfo.o
 .debug_str     0x00000161      0x162 build/default_-_avec_Bootloader/production/_ext/1472/HTTP_Reseau.o
 .debug_str     0x000002c3      0x18b build/default_-_avec_Bootloader/production/_ext/1472/HTTP_Mynetmemo.o
 .debug_str     0x0000044e      0x16b build/default_-_avec_Bootloader/production/_ext/1472/HTTP_Password.o
 .debug_str     0x000005b9      0x19e build/default_-_avec_Bootloader/production/_ext/1472/HTTP_log.o
 .debug_str     0x00000757      0x176 build/default_-_avec_Bootloader/production/_ext/1472/HTTP_cmd.o
 .debug_str     0x000008cd      0x1ab build/default_-_avec_Bootloader/production/_ext/1472/HTTP_Parametres.o
 .debug_str     0x00000a78      0x171 build/default_-_avec_Bootloader/production/_ext/1472/HTTP_Donnees.o
 .debug_str     0x00000be9      0x18d build/default_-_avec_Bootloader/production/_ext/1472/HTTP_Index.o
 .debug_str     0x00000d76      0x28c build/default_-_avec_Bootloader/production/_ext/1472/HTTP_ADTEK.o
 .debug_str     0x00001002      0x15b build/default_-_avec_Bootloader/production/_ext/1295770447/Announce.o
 .debug_str     0x0000115d      0x147 build/default_-_avec_Bootloader/production/_ext/1295770447/ARP.o
 .debug_str     0x000012a4      0x12f build/default_-_avec_Bootloader/production/_ext/1295770447/Delay.o
 .debug_str     0x000013d3      0x177 build/default_-_avec_Bootloader/production/_ext/1295770447/DHCP.o
 .debug_str     0x0000154a      0x12f build/default_-_avec_Bootloader/production/_ext/1295770447/DHCPs.o
 .debug_str     0x00001679      0x139 build/default_-_avec_Bootloader/production/_ext/1295770447/DNS.o
 .debug_str     0x000017b2      0x12f build/default_-_avec_Bootloader/production/_ext/1295770447/DynDNS.o
 .debug_str     0x000018e1      0x12f build/default_-_avec_Bootloader/production/_ext/1295770447/FTP.o
 .debug_str     0x00001a10      0x149 build/default_-_avec_Bootloader/production/_ext/1295770447/Hashes.o
 .debug_str     0x00001b59      0x16c build/default_-_avec_Bootloader/production/_ext/1295770447/Helpers.o
 .debug_str     0x00001cc5      0x15b build/default_-_avec_Bootloader/production/_ext/1295770447/HTTP2.o
 .debug_str     0x00001e20      0x12f build/default_-_avec_Bootloader/production/_ext/1295770447/ICMP.o
 .debug_str     0x00001f4f      0x142 build/default_-_avec_Bootloader/production/_ext/1295770447/IP.o
 .debug_str     0x00002091      0x153 build/default_-_avec_Bootloader/production/_ext/1295770447/MPFS2.o
 .debug_str     0x000021e4      0x152 build/default_-_avec_Bootloader/production/_ext/1295770447/NBNS.o
 .debug_str     0x00002336      0x182 build/default_-_avec_Bootloader/production/_ext/1295770447/SMTP.o
 .debug_str     0x000024b8      0x12f build/default_-_avec_Bootloader/production/_ext/1295770447/SNMP.o
 .debug_str     0x000025e7      0x12f build/default_-_avec_Bootloader/production/_ext/1295770447/SNTP.o
 .debug_str     0x00002716      0x12f build/default_-_avec_Bootloader/production/_ext/1295770447/SPIEEPROM.o
 .debug_str     0x00002845      0x12f build/default_-_avec_Bootloader/production/_ext/1295770447/SPIFlash.o
 .debug_str     0x00002974      0x12f build/default_-_avec_Bootloader/production/_ext/1295770447/SPIRAM.o
 .debug_str     0x00002aa3      0x144 build/default_-_avec_Bootloader/production/_ext/1295770447/StackTsk.o
 .debug_str     0x00002be7      0x201 build/default_-_avec_Bootloader/production/_ext/1295770447/TCP.o
 .debug_str     0x00002de8      0x12f build/default_-_avec_Bootloader/production/_ext/1295770447/Telnet.o
 .debug_str     0x00002f17      0x12f build/default_-_avec_Bootloader/production/_ext/1295770447/TFTPc.o
 .debug_str     0x00003046      0x14b build/default_-_avec_Bootloader/production/_ext/1295770447/Tick.o
 .debug_str     0x00003191      0x12f build/default_-_avec_Bootloader/production/_ext/1295770447/UART.o
 .debug_str     0x000032c0      0x1ae build/default_-_avec_Bootloader/production/_ext/1295770447/UDP.o
 .debug_str     0x0000346e      0x12f build/default_-_avec_Bootloader/production/_ext/1472/MPFSImg2.o
 .debug_str     0x0000359d      0x12f build/default_-_avec_Bootloader/production/_ext/1295770447/Random.o
 .debug_str     0x000036cc      0x12f build/default_-_avec_Bootloader/production/_ext/1295770447/RSA.o
 .debug_str     0x000037fb      0x1e1 build/default_-_avec_Bootloader/production/_ext/1295770447/SSL.o
 .debug_str     0x000039dc      0x12f build/default_-_avec_Bootloader/production/_ext/1295770447/ARCFOUR.o
 .debug_str     0x00003b0b      0x12f build/default_-_avec_Bootloader/production/_ext/1295770447/BigInt.o
 .debug_str     0x00003c3a      0x12f build/default_-_avec_Bootloader/production/_ext/1295770447/AutoIP.o
 .debug_str     0x00003d69      0x12f build/default_-_avec_Bootloader/production/_ext/1295770447/DNSs.o
 .debug_str     0x00003e98      0x1c8 build/default_-_avec_Bootloader/production/_ext/1295770447/ENCX24J600.o
 .debug_str     0x00004060      0x12f build/default_-_avec_Bootloader/production/_ext/1295770447/ETHPIC32ExtPhy.o
 .debug_str     0x0000418f      0x12f build/default_-_avec_Bootloader/production/_ext/1295770447/ETHPIC32ExtPhyDP83848.o
 .debug_str     0x000042be      0x12f build/default_-_avec_Bootloader/production/_ext/1295770447/ETHPIC32IntMac.o
 .debug_str     0x000043ed      0x1c5 build/default_-_avec_Bootloader/production/_ext/1472/rs232.o
 .debug_str     0x000045b2      0x153 build/default_-_avec_Bootloader/production/_ext/1472/Mynetmemo.o
 .debug_str     0x00004705      0x1f5 build/default_-_avec_Bootloader/production/_ext/1472/Eeprom_i2c.o
 .debug_str     0x000048fa      0x185 build/default_-_avec_Bootloader/production/_ext/1472/Temperature.o
 .debug_str     0x00004a7f      0x184 build/default_-_avec_Bootloader/production/_ext/1472/Teleinfo.o
 .debug_str     0x00004c03      0x167 build/default_-_avec_Bootloader/production/_ext/1472/log.o
 .debug_str     0x00004d6a      0x138 build/default_-_avec_Bootloader/production/_ext/1472/SSLCert.o
 .debug_str     0x00004ea2      0x16a build/default_-_avec_Bootloader/production/_ext/1472/divers.o
 .debug_str     0x0000500c      0x140 build/default_-_avec_Bootloader/production/_ext/1472/SST25VF016.o
 .debug_str     0x0000514c      0x16c build/default_-_avec_Bootloader/production/_ext/1472/drv_spi.o
 .debug_str     0x000052b8      0x181 build/default_-_avec_Bootloader/production/_ext/1472/mcp7941.o
 .debug_str     0x00005439      0x180 build/default_-_avec_Bootloader/production/_ext/1472/RTC.o
 .debug_str     0x000055b9      0x280 build/default_-_avec_Bootloader/production/_ext/1472/0_SparkBox.o
 .debug_str     0x00005839      0x155 build/default_-_avec_Bootloader/production/_ext/1472/Lcd.o
 .debug_str     0x0000598e      0x1a9 build/default_-_avec_Bootloader/production/_ext/1472/Analogique.o
 .debug_str     0x00005b37      0x216 build/default_-_avec_Bootloader/production/_ext/1472/Evse.o
 .debug_str     0x00005d4d      0x146 build/default_-_avec_Bootloader/production/_ext/1472/i2c.o
 .debug_str     0x00005e93      0x16f build/default_-_avec_Bootloader/production/_ext/1472/BD_sst.o
 .debug_str     0x00006002        0x0 c:/program files (x86)/microchip/xc32/v1.31/bin/../lib/gcc/pic32mx/4.5.2/../../../../pic32mx/lib/size\libmchp_peripheral_32MX695F512L.a(soft_reset_lib.o)
 .debug_str     0x00006002        0x0 c:/program files (x86)/microchip/xc32/v1.31/bin/../lib/gcc/pic32mx/4.5.2/../../../../pic32mx/lib/size\libmchp_peripheral_32MX695F512L.a(pcache.o)
 .debug_str     0x00006002        0x0 c:/program files (x86)/microchip/xc32/v1.31/bin/../lib/gcc/pic32mx/4.5.2/../../../../pic32mx/lib/size\libmchp_peripheral_32MX695F512L.a(int_disable_interrupts_lib.o)
 .debug_str     0x00006002        0x0 c:/program files (x86)/microchip/xc32/v1.31/bin/../lib/gcc/pic32mx/4.5.2/../../../../pic32mx/lib/size\libmchp_peripheral_32MX695F512L.a(int_restore_interrupts_lib.o)
 .debug_str     0x00006002        0x0 c:/program files (x86)/microchip/xc32/v1.31/bin/../lib/gcc/pic32mx/4.5.2/../../../../pic32mx/lib/size\libmchp_peripheral_32MX695F512L.a(int_enable_mv_int_lib.o)
 .debug_str     0x00006002        0x0 c:/program files (x86)/microchip/xc32/v1.31/bin/../lib/gcc/pic32mx/4.5.2/../../../../pic32mx/lib/size\libmchp_peripheral_32MX695F512L.a(int_tbl_lib.o)
 .debug_str     0x00006002        0x0 c:/program files (x86)/microchip/xc32/v1.31/bin/../lib/gcc/pic32mx/4.5.2/../../../../pic32mx/lib/size\libmchp_peripheral_32MX695F512L.a(uart_lib.o)
 .debug_str     0x00006002        0x0 c:/program files (x86)/microchip/xc32/v1.31/bin/../lib/gcc/pic32mx/4.5.2/../../../../pic32mx/lib/size\libmchp_peripheral_32MX695F512L.a(I2CAcknowledgeByte.o)
 .debug_str     0x00006002        0x0 c:/program files (x86)/microchip/xc32/v1.31/bin/../lib/gcc/pic32mx/4.5.2/../../../../pic32mx/lib/size\libmchp_peripheral_32MX695F512L.a(I2CBusIsIdle.o)
 .debug_str     0x00006002        0x0 c:/program files (x86)/microchip/xc32/v1.31/bin/../lib/gcc/pic32mx/4.5.2/../../../../pic32mx/lib/size\libmchp_peripheral_32MX695F512L.a(I2CByteWasAcknowledged.o)
 .debug_str     0x00006002        0x0 c:/program files (x86)/microchip/xc32/v1.31/bin/../lib/gcc/pic32mx/4.5.2/../../../../pic32mx/lib/size\libmchp_peripheral_32MX695F512L.a(I2CEnable.o)
 .debug_str     0x00006002        0x0 c:/program files (x86)/microchip/xc32/v1.31/bin/../lib/gcc/pic32mx/4.5.2/../../../../pic32mx/lib/size\libmchp_peripheral_32MX695F512L.a(I2CGetByte.o)
 .debug_str     0x00006002        0x0 c:/program files (x86)/microchip/xc32/v1.31/bin/../lib/gcc/pic32mx/4.5.2/../../../../pic32mx/lib/size\libmchp_peripheral_32MX695F512L.a(I2CGetStatus.o)
 .debug_str     0x00006002        0x0 c:/program files (x86)/microchip/xc32/v1.31/bin/../lib/gcc/pic32mx/4.5.2/../../../../pic32mx/lib/size\libmchp_peripheral_32MX695F512L.a(I2CReceivedDataIsAvailable.o)
 .debug_str     0x00006002        0x0 c:/program files (x86)/microchip/xc32/v1.31/bin/../lib/gcc/pic32mx/4.5.2/../../../../pic32mx/lib/size\libmchp_peripheral_32MX695F512L.a(I2CReceiverEnable.o)
 .debug_str     0x00006002        0x0 c:/program files (x86)/microchip/xc32/v1.31/bin/../lib/gcc/pic32mx/4.5.2/../../../../pic32mx/lib/size\libmchp_peripheral_32MX695F512L.a(I2CRepeatStart.o)
 .debug_str     0x00006002        0x0 c:/program files (x86)/microchip/xc32/v1.31/bin/../lib/gcc/pic32mx/4.5.2/../../../../pic32mx/lib/size\libmchp_peripheral_32MX695F512L.a(I2CSendByte.o)
 .debug_str     0x00006002        0x0 c:/program files (x86)/microchip/xc32/v1.31/bin/../lib/gcc/pic32mx/4.5.2/../../../../pic32mx/lib/size\libmchp_peripheral_32MX695F512L.a(I2CSetFrequency.o)
 .debug_str     0x00006002        0x0 c:/program files (x86)/microchip/xc32/v1.31/bin/../lib/gcc/pic32mx/4.5.2/../../../../pic32mx/lib/size\libmchp_peripheral_32MX695F512L.a(I2CStart.o)
 .debug_str     0x00006002        0x0 c:/program files (x86)/microchip/xc32/v1.31/bin/../lib/gcc/pic32mx/4.5.2/../../../../pic32mx/lib/size\libmchp_peripheral_32MX695F512L.a(I2CStop.o)
 .debug_str     0x00006002        0x0 c:/program files (x86)/microchip/xc32/v1.31/bin/../lib/gcc/pic32mx/4.5.2/../../../../pic32mx/lib/size\libmchp_peripheral_32MX695F512L.a(I2CTransmissionHasCompleted.o)
 .debug_str     0x00006002        0x0 c:/program files (x86)/microchip/xc32/v1.31/bin/../lib/gcc/pic32mx/4.5.2/../../../../pic32mx/lib/size\libmchp_peripheral_32MX695F512L.a(I2CTransmitterIsReady.o)
 .debug_str     0x00006002        0x0 c:/program files (x86)/microchip/xc32/v1.31/bin/../lib/gcc/pic32mx/4.5.2/../../../../pic32mx/lib/size\libmchp_peripheral_32MX695F512L.a(int_enable_interrupts_lib.o)
 .debug_str     0x00006002        0x0 c:/program files (x86)/microchip/xc32/v1.31/bin/../lib/gcc/pic32mx/4.5.2/../../../../pic32mx/lib/size\libmchp_peripheral_32MX695F512L.a(I2CPrivate.o)
 .debug_str     0x00006002        0x0 c:/program files (x86)/microchip/xc32/v1.31/bin/../lib/gcc/pic32mx/4.5.2/size\libgcc.a(_divdi3.o)
 .debug_str     0x00006002        0x0 c:/program files (x86)/microchip/xc32/v1.31/bin/../lib/gcc/pic32mx/4.5.2/size\libgcc.a(_udivdi3.o)
 .debug_str     0x00006002        0x0 c:/program files (x86)/microchip/xc32/v1.31/bin/../lib/gcc/pic32mx/4.5.2/size\libgcc.a(floatunsisf.o)
 .debug_str     0x00006002        0x0 c:/program files (x86)/microchip/xc32/v1.31/bin/../lib/gcc/pic32mx/4.5.2/../../../../pic32mx/lib/size\libpic32.a(default-bootstrap-exception-handler.o)
 .debug_str     0x00006002        0x0 c:/program files (x86)/microchip/xc32/v1.31/bin/../lib/gcc/pic32mx/4.5.2/../../../../pic32mx/lib/size\libpic32.a(default-on-reset.o)
 .debug_str     0x00006002        0x0 c:/program files (x86)/microchip/xc32/v1.31/bin/../lib/gcc/pic32mx/4.5.2/../../../../pic32mx/lib/size\libpic32.a(default-on-bootstrap.o)
 .debug_str     0x00006002        0x0 c:/program files (x86)/microchip/xc32/v1.31/bin/../lib/gcc/pic32mx/4.5.2/../../../../pic32mx/lib/size\libm.a(w_sqrtf.o)
 .debug_str     0x00006002        0x0 c:/program files (x86)/microchip/xc32/v1.31/bin/../lib/gcc/pic32mx/4.5.2/../../../../pic32mx/lib/size\libm.a(s_lib_ver.o)
 .debug_str     0x00006002        0x0 c:/program files (x86)/microchip/xc32/v1.31/bin/../lib/gcc/pic32mx/4.5.2/../../../../pic32mx/lib/size\libpic32.a(errno.o)
 .debug_str     0x00006002        0x0 c:/program files (x86)/microchip/xc32/v1.31/bin/../lib/gcc/pic32mx/4.5.2/../../../../pic32mx/lib/size\libc.a(atoi.o)
 .debug_str     0x00006002        0x0 c:/program files (x86)/microchip/xc32/v1.31/bin/../lib/gcc/pic32mx/4.5.2/../../../../pic32mx/lib/size\libc.a(atol.o)
 .debug_str     0x00006002        0x0 c:/program files (x86)/microchip/xc32/v1.31/bin/../lib/gcc/pic32mx/4.5.2/../../../../pic32mx/lib/size\libc.a(ctype.o)
 .debug_str     0x00006002        0x0 c:/program files (x86)/microchip/xc32/v1.31/bin/../lib/gcc/pic32mx/4.5.2/../../../../pic32mx/lib/size\libc.a(ctypef.o)
 .debug_str     0x00006002        0x0 c:/program files (x86)/microchip/xc32/v1.31/bin/../lib/gcc/pic32mx/4.5.2/../../../../pic32mx/lib/size\libc.a(ltoa.o)
 .debug_str     0x00006002        0x0 c:/program files (x86)/microchip/xc32/v1.31/bin/../lib/gcc/pic32mx/4.5.2/../../../../pic32mx/lib/size\libc.a(mktime.o)
 .debug_str     0x00006002        0x0 c:/program files (x86)/microchip/xc32/v1.31/bin/../lib/gcc/pic32mx/4.5.2/../../../../pic32mx/lib/size\libc.a(strcat.o)
 .debug_str     0x00006002        0x0 c:/program files (x86)/microchip/xc32/v1.31/bin/../lib/gcc/pic32mx/4.5.2/../../../../pic32mx/lib/size\libc.a(strchr.o)
 .debug_str     0x00006002        0x0 c:/program files (x86)/microchip/xc32/v1.31/bin/../lib/gcc/pic32mx/4.5.2/../../../../pic32mx/lib/size\libc.a(strncmp.o)
 .debug_str     0x00006002        0x0 c:/program files (x86)/microchip/xc32/v1.31/bin/../lib/gcc/pic32mx/4.5.2/../../../../pic32mx/lib/size\libc.a(strncpy.o)
 .debug_str     0x00006002        0x0 c:/program files (x86)/microchip/xc32/v1.31/bin/../lib/gcc/pic32mx/4.5.2/../../../../pic32mx/lib/size\libc.a(strstr.o)
 .debug_str     0x00006002        0x0 c:/program files (x86)/microchip/xc32/v1.31/bin/../lib/gcc/pic32mx/4.5.2/../../../../pic32mx/lib/size\libc.a(sprintf_cdnopsuxX.eo)
 .debug_str     0x00006002        0x0 c:/program files (x86)/microchip/xc32/v1.31/bin/../lib/gcc/pic32mx/4.5.2/../../../../pic32mx/lib/size\libc.a(doprnt_cdnopsuxX.eo)
 .debug_str     0x00006002        0x0 c:/program files (x86)/microchip/xc32/v1.31/bin/../lib/gcc/pic32mx/4.5.2/../../../../pic32mx/lib/size\libc.a(_fputc_simple.o)
 .debug_str     0x00006002        0x0 c:/program files (x86)/microchip/xc32/v1.31/bin/../lib/gcc/pic32mx/4.5.2/../../../../pic32mx/lib/size\libc.a(_iob.o)
 .debug_str     0x00006002        0x0 c:/program files (x86)/microchip/xc32/v1.31/bin/../lib/gcc/pic32mx/4.5.2/../../../../pic32mx/lib/size\libc.a(_flsbuf_simple.o)
 .debug_str     0x00006002        0x0 c:/program files (x86)/microchip/xc32/v1.31/bin/../lib/gcc/pic32mx/4.5.2/../../../../pic32mx/lib/size\libpic32.a(write.o)
 .debug_str     0x00006002        0x0 c:/program files (x86)/microchip/xc32/v1.31/bin/../lib/gcc/pic32mx/4.5.2/../../../../pic32mx/lib/size\libpic32.a(_mon_putc.o)
 .debug_str     0x00006002        0x0 c:/program files (x86)/microchip/xc32/v1.31/bin/../lib/gcc/pic32mx/4.5.2/../../../../pic32mx/lib/size\libpic32.a(xc32_uart.o)
 .debug_str     0x00006002        0x0 c:/program files (x86)/microchip/xc32/v1.31/bin/../lib/gcc/pic32mx/4.5.2/size\libgcc.a(_lshrdi3.o)
 .debug_str     0x00006002        0x0 c:/program files (x86)/microchip/xc32/v1.31/bin/../lib/gcc/pic32mx/4.5.2/size\libgcc.a(_umoddi3.o)

.debug_loc      0x00000000     0xa32f
 *(.debug_loc)
 .debug_loc     0x00000000      0x38b build/default_-_avec_Bootloader/production/_ext/1472/HTTP_Teleinfo.o
 .debug_loc     0x0000038b       0x44 build/default_-_avec_Bootloader/production/_ext/1472/HTTP_Mynetmemo.o
 .debug_loc     0x000003cf       0x1e build/default_-_avec_Bootloader/production/_ext/1472/HTTP_Password.o
 .debug_loc     0x000003ed       0x7b build/default_-_avec_Bootloader/production/_ext/1472/HTTP_log.o
 .debug_loc     0x00000468       0x47 build/default_-_avec_Bootloader/production/_ext/1472/HTTP_cmd.o
 .debug_loc     0x000004af      0x209 build/default_-_avec_Bootloader/production/_ext/1472/HTTP_Parametres.o
 .debug_loc     0x000006b8       0x1e build/default_-_avec_Bootloader/production/_ext/1472/HTTP_Donnees.o
 .debug_loc     0x000006d6      0x15d build/default_-_avec_Bootloader/production/_ext/1472/HTTP_Index.o
 .debug_loc     0x00000833      0x2b2 build/default_-_avec_Bootloader/production/_ext/1472/HTTP_ADTEK.o
 .debug_loc     0x00000ae5       0x99 build/default_-_avec_Bootloader/production/_ext/1295770447/Announce.o
 .debug_loc     0x00000b7e       0xb9 build/default_-_avec_Bootloader/production/_ext/1295770447/ARP.o
 .debug_loc     0x00000c37       0x53 build/default_-_avec_Bootloader/production/_ext/1295770447/Delay.o
 .debug_loc     0x00000c8a      0x251 build/default_-_avec_Bootloader/production/_ext/1295770447/DHCP.o
 .debug_loc     0x00000edb       0xbf build/default_-_avec_Bootloader/production/_ext/1295770447/DNS.o
 .debug_loc     0x00000f9a      0x6f5 build/default_-_avec_Bootloader/production/_ext/1295770447/Hashes.o
 .debug_loc     0x0000168f      0x912 build/default_-_avec_Bootloader/production/_ext/1295770447/Helpers.o
 .debug_loc     0x00001fa1      0xb34 build/default_-_avec_Bootloader/production/_ext/1295770447/HTTP2.o
 .debug_loc     0x00002ad5       0x31 build/default_-_avec_Bootloader/production/_ext/1295770447/ICMP.o
 .debug_loc     0x00002b06       0xcf build/default_-_avec_Bootloader/production/_ext/1295770447/IP.o
 .debug_loc     0x00002bd5      0x3f0 build/default_-_avec_Bootloader/production/_ext/1295770447/MPFS2.o
 .debug_loc     0x00002fc5       0x6f build/default_-_avec_Bootloader/production/_ext/1295770447/NBNS.o
 .debug_loc     0x00003034      0x2cd build/default_-_avec_Bootloader/production/_ext/1295770447/SMTP.o
 .debug_loc     0x00003301       0x4b build/default_-_avec_Bootloader/production/_ext/1295770447/StackTsk.o
 .debug_loc     0x0000334c     0x17e1 build/default_-_avec_Bootloader/production/_ext/1295770447/TCP.o
 .debug_loc     0x00004b2d       0x49 build/default_-_avec_Bootloader/production/_ext/1295770447/Tick.o
 .debug_loc     0x00004b76      0x2d1 build/default_-_avec_Bootloader/production/_ext/1295770447/UDP.o
 .debug_loc     0x00004e47       0x1f build/default_-_avec_Bootloader/production/_ext/1295770447/Random.o
 .debug_loc     0x00004e66      0xee4 build/default_-_avec_Bootloader/production/_ext/1295770447/SSL.o
 .debug_loc     0x00005d4a      0x13b build/default_-_avec_Bootloader/production/_ext/1295770447/ARCFOUR.o
 .debug_loc     0x00005e85      0x8c3 build/default_-_avec_Bootloader/production/_ext/1295770447/ENCX24J600.o
 .debug_loc     0x00006748      0x148 build/default_-_avec_Bootloader/production/_ext/1472/rs232.o
 .debug_loc     0x00006890       0x6d build/default_-_avec_Bootloader/production/_ext/1472/Mynetmemo.o
 .debug_loc     0x000068fd      0x56f build/default_-_avec_Bootloader/production/_ext/1472/Eeprom_i2c.o
 .debug_loc     0x00006e6c      0x29e build/default_-_avec_Bootloader/production/_ext/1472/Temperature.o
 .debug_loc     0x0000710a      0x208 build/default_-_avec_Bootloader/production/_ext/1472/Teleinfo.o
 .debug_loc     0x00007312       0x52 build/default_-_avec_Bootloader/production/_ext/1472/log.o
 .debug_loc     0x00007364      0x314 build/default_-_avec_Bootloader/production/_ext/1472/divers.o
 .debug_loc     0x00007678      0x2a5 build/default_-_avec_Bootloader/production/_ext/1472/SST25VF016.o
 .debug_loc     0x0000791d       0x54 build/default_-_avec_Bootloader/production/_ext/1472/drv_spi.o
 .debug_loc     0x00007971      0x2ec build/default_-_avec_Bootloader/production/_ext/1472/mcp7941.o
 .debug_loc     0x00007c5d      0x31b build/default_-_avec_Bootloader/production/_ext/1472/RTC.o
 .debug_loc     0x00007f78      0x26a build/default_-_avec_Bootloader/production/_ext/1472/0_SparkBox.o
 .debug_loc     0x000081e2       0xb4 build/default_-_avec_Bootloader/production/_ext/1472/Lcd.o
 .debug_loc     0x00008296       0x5d build/default_-_avec_Bootloader/production/_ext/1472/Analogique.o
 .debug_loc     0x000082f3       0xe5 build/default_-_avec_Bootloader/production/_ext/1472/Evse.o
 .debug_loc     0x000083d8      0x186 build/default_-_avec_Bootloader/production/_ext/1472/i2c.o
 .debug_loc     0x0000855e       0xa9 build/default_-_avec_Bootloader/production/_ext/1472/BD_sst.o
 .debug_loc     0x00008607      0x962 c:/program files (x86)/microchip/xc32/v1.31/bin/../lib/gcc/pic32mx/4.5.2/size\libgcc.a(_divdi3.o)
 .debug_loc     0x00008f69      0x9f9 c:/program files (x86)/microchip/xc32/v1.31/bin/../lib/gcc/pic32mx/4.5.2/size\libgcc.a(_udivdi3.o)
 .debug_loc     0x00009962       0x68 c:/program files (x86)/microchip/xc32/v1.31/bin/../lib/gcc/pic32mx/4.5.2/size\libgcc.a(floatunsisf.o)
 .debug_loc     0x000099ca       0x4f c:/program files (x86)/microchip/xc32/v1.31/bin/../lib/gcc/pic32mx/4.5.2/size\libgcc.a(_lshrdi3.o)
 .debug_loc     0x00009a19      0x916 c:/program files (x86)/microchip/xc32/v1.31/bin/../lib/gcc/pic32mx/4.5.2/size\libgcc.a(_umoddi3.o)

.debug_macinfo
 *(.debug_macinfo)

.debug_weaknames
 *(.debug_weaknames)

.debug_funcnames
 *(.debug_funcnames)

.debug_typenames
 *(.debug_typenames)

.debug_varnames
 *(.debug_varnames)

.debug_pubtypes
                0x00000000     0x6263
 *(.debug_pubtypes)
 .debug_pubtypes
                0x00000000      0x1e4 build/default_-_avec_Bootloader/production/_ext/1472/HTTP_Teleinfo.o
 .debug_pubtypes
                0x000001e4      0x229 build/default_-_avec_Bootloader/production/_ext/1472/HTTP_Reseau.o
 .debug_pubtypes
                0x0000040d      0x22e build/default_-_avec_Bootloader/production/_ext/1472/HTTP_Mynetmemo.o
 .debug_pubtypes
                0x0000063b      0x1ee build/default_-_avec_Bootloader/production/_ext/1472/HTTP_Password.o
 .debug_pubtypes
                0x00000829      0x1ee build/default_-_avec_Bootloader/production/_ext/1472/HTTP_log.o
 .debug_pubtypes
                0x00000a17      0x1ba build/default_-_avec_Bootloader/production/_ext/1472/HTTP_cmd.o
 .debug_pubtypes
                0x00000bd1      0x205 build/default_-_avec_Bootloader/production/_ext/1472/HTTP_Parametres.o
 .debug_pubtypes
                0x00000dd6      0x1fb build/default_-_avec_Bootloader/production/_ext/1472/HTTP_Donnees.o
 .debug_pubtypes
                0x00000fd1      0x1db build/default_-_avec_Bootloader/production/_ext/1472/HTTP_Index.o
 .debug_pubtypes
                0x000011ac      0x2f4 build/default_-_avec_Bootloader/production/_ext/1472/HTTP_ADTEK.o
 .debug_pubtypes
                0x000014a0      0x19a build/default_-_avec_Bootloader/production/_ext/1295770447/Announce.o
 .debug_pubtypes
                0x0000163a      0x17e build/default_-_avec_Bootloader/production/_ext/1295770447/ARP.o
 .debug_pubtypes
                0x000017b8       0xfa build/default_-_avec_Bootloader/production/_ext/1295770447/Delay.o
 .debug_pubtypes
                0x000018b2      0x1d8 build/default_-_avec_Bootloader/production/_ext/1295770447/DHCP.o
 .debug_pubtypes
                0x00001a8a       0xe7 build/default_-_avec_Bootloader/production/_ext/1295770447/DHCPs.o
 .debug_pubtypes
                0x00001b71      0x1ad build/default_-_avec_Bootloader/production/_ext/1295770447/DNS.o
 .debug_pubtypes
                0x00001d1e       0xe7 build/default_-_avec_Bootloader/production/_ext/1295770447/DynDNS.o
 .debug_pubtypes
                0x00001e05       0xe7 build/default_-_avec_Bootloader/production/_ext/1295770447/FTP.o
 .debug_pubtypes
                0x00001eec      0x139 build/default_-_avec_Bootloader/production/_ext/1295770447/Hashes.o
 .debug_pubtypes
                0x00002025      0x167 build/default_-_avec_Bootloader/production/_ext/1295770447/Helpers.o
 .debug_pubtypes
                0x0000218c      0x1d4 build/default_-_avec_Bootloader/production/_ext/1295770447/HTTP2.o
 .debug_pubtypes
                0x00002360      0x139 build/default_-_avec_Bootloader/production/_ext/1295770447/ICMP.o
 .debug_pubtypes
                0x00002499      0x18c build/default_-_avec_Bootloader/production/_ext/1295770447/IP.o
 .debug_pubtypes
                0x00002625      0x168 build/default_-_avec_Bootloader/production/_ext/1295770447/MPFS2.o
 .debug_pubtypes
                0x0000278d      0x1bb build/default_-_avec_Bootloader/production/_ext/1295770447/NBNS.o
 .debug_pubtypes
                0x00002948      0x165 build/default_-_avec_Bootloader/production/_ext/1295770447/SMTP.o
 .debug_pubtypes
                0x00002aad       0xe7 build/default_-_avec_Bootloader/production/_ext/1295770447/SNMP.o
 .debug_pubtypes
                0x00002b94       0xe7 build/default_-_avec_Bootloader/production/_ext/1295770447/SNTP.o
 .debug_pubtypes
                0x00002c7b       0xe7 build/default_-_avec_Bootloader/production/_ext/1295770447/SPIEEPROM.o
 .debug_pubtypes
                0x00002d62       0xe7 build/default_-_avec_Bootloader/production/_ext/1295770447/SPIFlash.o
 .debug_pubtypes
                0x00002e49       0xe7 build/default_-_avec_Bootloader/production/_ext/1295770447/SPIRAM.o
 .debug_pubtypes
                0x00002f30      0x17c build/default_-_avec_Bootloader/production/_ext/1295770447/StackTsk.o
 .debug_pubtypes
                0x000030ac      0x234 build/default_-_avec_Bootloader/production/_ext/1295770447/TCP.o
 .debug_pubtypes
                0x000032e0       0xe7 build/default_-_avec_Bootloader/production/_ext/1295770447/Telnet.o
 .debug_pubtypes
                0x000033c7       0xe7 build/default_-_avec_Bootloader/production/_ext/1295770447/TFTPc.o
 .debug_pubtypes
                0x000034ae      0x137 build/default_-_avec_Bootloader/production/_ext/1295770447/Tick.o
 .debug_pubtypes
                0x000035e5       0xe7 build/default_-_avec_Bootloader/production/_ext/1295770447/UART.o
 .debug_pubtypes
                0x000036cc      0x1eb build/default_-_avec_Bootloader/production/_ext/1295770447/UDP.o
 .debug_pubtypes
                0x000038b7       0xf0 build/default_-_avec_Bootloader/production/_ext/1472/MPFSImg2.o
 .debug_pubtypes
                0x000039a7      0x115 build/default_-_avec_Bootloader/production/_ext/1295770447/Random.o
 .debug_pubtypes
                0x00003abc       0xe7 build/default_-_avec_Bootloader/production/_ext/1295770447/RSA.o
 .debug_pubtypes
                0x00003ba3      0x1e4 build/default_-_avec_Bootloader/production/_ext/1295770447/SSL.o
 .debug_pubtypes
                0x00003d87      0x109 build/default_-_avec_Bootloader/production/_ext/1295770447/ARCFOUR.o
 .debug_pubtypes
                0x00003e90       0xe7 build/default_-_avec_Bootloader/production/_ext/1295770447/BigInt.o
 .debug_pubtypes
                0x00003f77       0xe7 build/default_-_avec_Bootloader/production/_ext/1295770447/AutoIP.o
 .debug_pubtypes
                0x0000405e       0xe7 build/default_-_avec_Bootloader/production/_ext/1295770447/DNSs.o
 .debug_pubtypes
                0x00004145      0x200 build/default_-_avec_Bootloader/production/_ext/1295770447/ENCX24J600.o
 .debug_pubtypes
                0x00004345       0xe7 build/default_-_avec_Bootloader/production/_ext/1295770447/ETHPIC32ExtPhy.o
 .debug_pubtypes
                0x0000442c       0xe7 build/default_-_avec_Bootloader/production/_ext/1295770447/ETHPIC32ExtPhyDP83848.o
 .debug_pubtypes
                0x00004513       0xe7 build/default_-_avec_Bootloader/production/_ext/1295770447/ETHPIC32IntMac.o
 .debug_pubtypes
                0x000045fa      0x10a build/default_-_avec_Bootloader/production/_ext/1472/rs232.o
 .debug_pubtypes
                0x00004704      0x17d build/default_-_avec_Bootloader/production/_ext/1472/Mynetmemo.o
 .debug_pubtypes
                0x00004881      0x201 build/default_-_avec_Bootloader/production/_ext/1472/Eeprom_i2c.o
 .debug_pubtypes
                0x00004a82      0x12a build/default_-_avec_Bootloader/production/_ext/1472/Temperature.o
 .debug_pubtypes
                0x00004bac      0x147 build/default_-_avec_Bootloader/production/_ext/1472/Teleinfo.o
 .debug_pubtypes
                0x00004cf3      0x117 build/default_-_avec_Bootloader/production/_ext/1472/log.o
 .debug_pubtypes
                0x00004e0a       0xf9 build/default_-_avec_Bootloader/production/_ext/1472/SSLCert.o
 .debug_pubtypes
                0x00004f03      0x1db build/default_-_avec_Bootloader/production/_ext/1472/divers.o
 .debug_pubtypes
                0x000050de      0x145 build/default_-_avec_Bootloader/production/_ext/1472/SST25VF016.o
 .debug_pubtypes
                0x00005223      0x12f build/default_-_avec_Bootloader/production/_ext/1472/drv_spi.o
 .debug_pubtypes
                0x00005352      0x153 build/default_-_avec_Bootloader/production/_ext/1472/mcp7941.o
 .debug_pubtypes
                0x000054a5      0x188 build/default_-_avec_Bootloader/production/_ext/1472/RTC.o
 .debug_pubtypes
                0x0000562d      0x35a build/default_-_avec_Bootloader/production/_ext/1472/0_SparkBox.o
 .debug_pubtypes
                0x00005987      0x12d build/default_-_avec_Bootloader/production/_ext/1472/Lcd.o
 .debug_pubtypes
                0x00005ab4      0x1ae build/default_-_avec_Bootloader/production/_ext/1472/Analogique.o
 .debug_pubtypes
                0x00005c62      0x1ce build/default_-_avec_Bootloader/production/_ext/1472/Evse.o
 .debug_pubtypes
                0x00005e30      0x12b build/default_-_avec_Bootloader/production/_ext/1472/i2c.o
 .debug_pubtypes
                0x00005f5b      0x167 build/default_-_avec_Bootloader/production/_ext/1472/BD_sst.o
 .debug_pubtypes
                0x000060c2       0x59 c:/program files (x86)/microchip/xc32/v1.31/bin/../lib/gcc/pic32mx/4.5.2/size\libgcc.a(_divdi3.o)
 .debug_pubtypes
                0x0000611b       0x59 c:/program files (x86)/microchip/xc32/v1.31/bin/../lib/gcc/pic32mx/4.5.2/size\libgcc.a(_udivdi3.o)
 .debug_pubtypes
                0x00006174       0x34 c:/program files (x86)/microchip/xc32/v1.31/bin/../lib/gcc/pic32mx/4.5.2/size\libgcc.a(floatunsisf.o)
 .debug_pubtypes
                0x000061a8       0x62 c:/program files (x86)/microchip/xc32/v1.31/bin/../lib/gcc/pic32mx/4.5.2/size\libgcc.a(_lshrdi3.o)
 .debug_pubtypes
                0x0000620a       0x59 c:/program files (x86)/microchip/xc32/v1.31/bin/../lib/gcc/pic32mx/4.5.2/size\libgcc.a(_umoddi3.o)

.debug_ranges   0x00000000      0x1f0
 *(.debug_ranges)
 .debug_ranges  0x00000000       0x10 c:/program files (x86)/microchip/xc32/v1.31/bin/../lib/gcc/pic32mx/4.5.2/../../../../pic32mx/lib/size\libmchp_peripheral_32MX695F512L.a(soft_reset_lib.o)
 .debug_ranges  0x00000010       0x18 c:/program files (x86)/microchip/xc32/v1.31/bin/../lib/gcc/pic32mx/4.5.2/../../../../pic32mx/lib/size\libmchp_peripheral_32MX695F512L.a(pcache.o)
 .debug_ranges  0x00000028       0x10 c:/program files (x86)/microchip/xc32/v1.31/bin/../lib/gcc/pic32mx/4.5.2/../../../../pic32mx/lib/size\libmchp_peripheral_32MX695F512L.a(int_disable_interrupts_lib.o)
 .debug_ranges  0x00000038       0x10 c:/program files (x86)/microchip/xc32/v1.31/bin/../lib/gcc/pic32mx/4.5.2/../../../../pic32mx/lib/size\libmchp_peripheral_32MX695F512L.a(int_restore_interrupts_lib.o)
 .debug_ranges  0x00000048       0x10 c:/program files (x86)/microchip/xc32/v1.31/bin/../lib/gcc/pic32mx/4.5.2/../../../../pic32mx/lib/size\libmchp_peripheral_32MX695F512L.a(int_enable_mv_int_lib.o)
 .debug_ranges  0x00000058       0x50 c:/program files (x86)/microchip/xc32/v1.31/bin/../lib/gcc/pic32mx/4.5.2/../../../../pic32mx/lib/size\libmchp_peripheral_32MX695F512L.a(int_tbl_lib.o)
 .debug_ranges  0x000000a8       0x48 c:/program files (x86)/microchip/xc32/v1.31/bin/../lib/gcc/pic32mx/4.5.2/../../../../pic32mx/lib/size\libmchp_peripheral_32MX695F512L.a(uart_lib.o)
 .debug_ranges  0x000000f0       0x10 c:/program files (x86)/microchip/xc32/v1.31/bin/../lib/gcc/pic32mx/4.5.2/../../../../pic32mx/lib/size\libmchp_peripheral_32MX695F512L.a(I2CAcknowledgeByte.o)
 .debug_ranges  0x00000100       0x10 c:/program files (x86)/microchip/xc32/v1.31/bin/../lib/gcc/pic32mx/4.5.2/../../../../pic32mx/lib/size\libmchp_peripheral_32MX695F512L.a(I2CBusIsIdle.o)
 .debug_ranges  0x00000110       0x10 c:/program files (x86)/microchip/xc32/v1.31/bin/../lib/gcc/pic32mx/4.5.2/../../../../pic32mx/lib/size\libmchp_peripheral_32MX695F512L.a(I2CByteWasAcknowledged.o)
 .debug_ranges  0x00000120       0x10 c:/program files (x86)/microchip/xc32/v1.31/bin/../lib/gcc/pic32mx/4.5.2/../../../../pic32mx/lib/size\libmchp_peripheral_32MX695F512L.a(I2CEnable.o)
 .debug_ranges  0x00000130       0x10 c:/program files (x86)/microchip/xc32/v1.31/bin/../lib/gcc/pic32mx/4.5.2/../../../../pic32mx/lib/size\libmchp_peripheral_32MX695F512L.a(I2CGetByte.o)
 .debug_ranges  0x00000140       0x10 c:/program files (x86)/microchip/xc32/v1.31/bin/../lib/gcc/pic32mx/4.5.2/../../../../pic32mx/lib/size\libmchp_peripheral_32MX695F512L.a(I2CGetStatus.o)
 .debug_ranges  0x00000150       0x10 c:/program files (x86)/microchip/xc32/v1.31/bin/../lib/gcc/pic32mx/4.5.2/../../../../pic32mx/lib/size\libmchp_peripheral_32MX695F512L.a(I2CReceivedDataIsAvailable.o)
 .debug_ranges  0x00000160       0x10 c:/program files (x86)/microchip/xc32/v1.31/bin/../lib/gcc/pic32mx/4.5.2/../../../../pic32mx/lib/size\libmchp_peripheral_32MX695F512L.a(I2CReceiverEnable.o)
 .debug_ranges  0x00000170       0x10 c:/program files (x86)/microchip/xc32/v1.31/bin/../lib/gcc/pic32mx/4.5.2/../../../../pic32mx/lib/size\libmchp_peripheral_32MX695F512L.a(I2CRepeatStart.o)
 .debug_ranges  0x00000180       0x10 c:/program files (x86)/microchip/xc32/v1.31/bin/../lib/gcc/pic32mx/4.5.2/../../../../pic32mx/lib/size\libmchp_peripheral_32MX695F512L.a(I2CSendByte.o)
 .debug_ranges  0x00000190       0x10 c:/program files (x86)/microchip/xc32/v1.31/bin/../lib/gcc/pic32mx/4.5.2/../../../../pic32mx/lib/size\libmchp_peripheral_32MX695F512L.a(I2CSetFrequency.o)
 .debug_ranges  0x000001a0       0x10 c:/program files (x86)/microchip/xc32/v1.31/bin/../lib/gcc/pic32mx/4.5.2/../../../../pic32mx/lib/size\libmchp_peripheral_32MX695F512L.a(I2CStart.o)
 .debug_ranges  0x000001b0       0x10 c:/program files (x86)/microchip/xc32/v1.31/bin/../lib/gcc/pic32mx/4.5.2/../../../../pic32mx/lib/size\libmchp_peripheral_32MX695F512L.a(I2CStop.o)
 .debug_ranges  0x000001c0       0x10 c:/program files (x86)/microchip/xc32/v1.31/bin/../lib/gcc/pic32mx/4.5.2/../../../../pic32mx/lib/size\libmchp_peripheral_32MX695F512L.a(I2CTransmissionHasCompleted.o)
 .debug_ranges  0x000001d0       0x10 c:/program files (x86)/microchip/xc32/v1.31/bin/../lib/gcc/pic32mx/4.5.2/../../../../pic32mx/lib/size\libmchp_peripheral_32MX695F512L.a(I2CTransmitterIsReady.o)
 .debug_ranges  0x000001e0       0x10 c:/program files (x86)/microchip/xc32/v1.31/bin/../lib/gcc/pic32mx/4.5.2/../../../../pic32mx/lib/size\libmchp_peripheral_32MX695F512L.a(int_enable_interrupts_lib.o)

.gnu.attributes
                0x00000000       0x10
 *(.gnu.attributes)
 .gnu.attributes
                0x00000000       0x10 build/default_-_avec_Bootloader/production/_ext/1472/HTTP_Teleinfo.o
 .gnu.attributes
                0x00000010       0x10 build/default_-_avec_Bootloader/production/_ext/1472/HTTP_Reseau.o
 .gnu.attributes
                0x00000020       0x10 build/default_-_avec_Bootloader/production/_ext/1472/HTTP_Mynetmemo.o
 .gnu.attributes
                0x00000030       0x10 build/default_-_avec_Bootloader/production/_ext/1472/HTTP_Password.o
 .gnu.attributes
                0x00000040       0x10 build/default_-_avec_Bootloader/production/_ext/1472/HTTP_log.o
 .gnu.attributes
                0x00000050       0x10 build/default_-_avec_Bootloader/production/_ext/1472/HTTP_cmd.o
 .gnu.attributes
                0x00000060       0x10 build/default_-_avec_Bootloader/production/_ext/1472/HTTP_Parametres.o
 .gnu.attributes
                0x00000070       0x10 build/default_-_avec_Bootloader/production/_ext/1472/HTTP_Donnees.o
 .gnu.attributes
                0x00000080       0x10 build/default_-_avec_Bootloader/production/_ext/1472/HTTP_Index.o
 .gnu.attributes
                0x00000090       0x10 build/default_-_avec_Bootloader/production/_ext/1472/HTTP_ADTEK.o
 .gnu.attributes
                0x000000a0       0x10 build/default_-_avec_Bootloader/production/_ext/1295770447/Announce.o
 .gnu.attributes
                0x000000b0       0x10 build/default_-_avec_Bootloader/production/_ext/1295770447/ARP.o
 .gnu.attributes
                0x000000c0       0x10 build/default_-_avec_Bootloader/production/_ext/1295770447/Delay.o
 .gnu.attributes
                0x000000d0       0x10 build/default_-_avec_Bootloader/production/_ext/1295770447/DHCP.o
 .gnu.attributes
                0x000000e0       0x10 build/default_-_avec_Bootloader/production/_ext/1295770447/DHCPs.o
 .gnu.attributes
                0x000000f0       0x10 build/default_-_avec_Bootloader/production/_ext/1295770447/DNS.o
 .gnu.attributes
                0x00000100       0x10 build/default_-_avec_Bootloader/production/_ext/1295770447/DynDNS.o
 .gnu.attributes
                0x00000110       0x10 build/default_-_avec_Bootloader/production/_ext/1295770447/FTP.o
 .gnu.attributes
                0x00000120       0x10 build/default_-_avec_Bootloader/production/_ext/1295770447/Hashes.o
 .gnu.attributes
                0x00000130       0x10 build/default_-_avec_Bootloader/production/_ext/1295770447/Helpers.o
 .gnu.attributes
                0x00000140       0x10 build/default_-_avec_Bootloader/production/_ext/1295770447/HTTP2.o
 .gnu.attributes
                0x00000150       0x10 build/default_-_avec_Bootloader/production/_ext/1295770447/ICMP.o
 .gnu.attributes
                0x00000160       0x10 build/default_-_avec_Bootloader/production/_ext/1295770447/IP.o
 .gnu.attributes
                0x00000170       0x10 build/default_-_avec_Bootloader/production/_ext/1295770447/MPFS2.o
 .gnu.attributes
                0x00000180       0x10 build/default_-_avec_Bootloader/production/_ext/1295770447/NBNS.o
 .gnu.attributes
                0x00000190       0x10 build/default_-_avec_Bootloader/production/_ext/1295770447/SMTP.o
 .gnu.attributes
                0x000001a0       0x10 build/default_-_avec_Bootloader/production/_ext/1295770447/SNMP.o
 .gnu.attributes
                0x000001b0       0x10 build/default_-_avec_Bootloader/production/_ext/1295770447/SNTP.o
 .gnu.attributes
                0x000001c0       0x10 build/default_-_avec_Bootloader/production/_ext/1295770447/SPIEEPROM.o
 .gnu.attributes
                0x000001d0       0x10 build/default_-_avec_Bootloader/production/_ext/1295770447/SPIFlash.o
 .gnu.attributes
                0x000001e0       0x10 build/default_-_avec_Bootloader/production/_ext/1295770447/SPIRAM.o
 .gnu.attributes
                0x000001f0       0x10 build/default_-_avec_Bootloader/production/_ext/1295770447/StackTsk.o
 .gnu.attributes
                0x00000200       0x10 build/default_-_avec_Bootloader/production/_ext/1295770447/TCP.o
 .gnu.attributes
                0x00000210       0x10 build/default_-_avec_Bootloader/production/_ext/1295770447/Telnet.o
 .gnu.attributes
                0x00000220       0x10 build/default_-_avec_Bootloader/production/_ext/1295770447/TFTPc.o
 .gnu.attributes
                0x00000230       0x10 build/default_-_avec_Bootloader/production/_ext/1295770447/Tick.o
 .gnu.attributes
                0x00000240       0x10 build/default_-_avec_Bootloader/production/_ext/1295770447/UART.o
 .gnu.attributes
                0x00000250       0x10 build/default_-_avec_Bootloader/production/_ext/1295770447/UDP.o
 .gnu.attributes
                0x00000260       0x10 build/default_-_avec_Bootloader/production/_ext/1472/MPFSImg2.o
 .gnu.attributes
                0x00000270       0x10 build/default_-_avec_Bootloader/production/_ext/1295770447/Random.o
 .gnu.attributes
                0x00000280       0x10 build/default_-_avec_Bootloader/production/_ext/1295770447/RSA.o
 .gnu.attributes
                0x00000290       0x10 build/default_-_avec_Bootloader/production/_ext/1295770447/SSL.o
 .gnu.attributes
                0x000002a0       0x10 build/default_-_avec_Bootloader/production/_ext/1295770447/ARCFOUR.o
 .gnu.attributes
                0x000002b0       0x10 build/default_-_avec_Bootloader/production/_ext/1295770447/BigInt.o
 .gnu.attributes
                0x000002c0       0x10 build/default_-_avec_Bootloader/production/_ext/1295770447/AutoIP.o
 .gnu.attributes
                0x000002d0       0x10 build/default_-_avec_Bootloader/production/_ext/1295770447/DNSs.o
 .gnu.attributes
                0x000002e0       0x10 build/default_-_avec_Bootloader/production/_ext/1295770447/ENCX24J600.o
 .gnu.attributes
                0x000002f0       0x10 build/default_-_avec_Bootloader/production/_ext/1295770447/ETHPIC32ExtPhy.o
 .gnu.attributes
                0x00000300       0x10 build/default_-_avec_Bootloader/production/_ext/1295770447/ETHPIC32ExtPhyDP83848.o
 .gnu.attributes
                0x00000310       0x10 build/default_-_avec_Bootloader/production/_ext/1295770447/ETHPIC32IntMac.o
 .gnu.attributes
                0x00000320       0x10 build/default_-_avec_Bootloader/production/_ext/1472/rs232.o
 .gnu.attributes
                0x00000330       0x10 build/default_-_avec_Bootloader/production/_ext/1472/Mynetmemo.o
 .gnu.attributes
                0x00000340       0x10 build/default_-_avec_Bootloader/production/_ext/1472/Eeprom_i2c.o
 .gnu.attributes
                0x00000350       0x10 build/default_-_avec_Bootloader/production/_ext/1472/Temperature.o
 .gnu.attributes
                0x00000360       0x10 build/default_-_avec_Bootloader/production/_ext/1472/Teleinfo.o
 .gnu.attributes
                0x00000370       0x10 build/default_-_avec_Bootloader/production/_ext/1472/log.o
 .gnu.attributes
                0x00000380       0x10 build/default_-_avec_Bootloader/production/_ext/1472/SSLCert.o
 .gnu.attributes
                0x00000390       0x10 build/default_-_avec_Bootloader/production/_ext/1472/divers.o
 .gnu.attributes
                0x000003a0       0x10 build/default_-_avec_Bootloader/production/_ext/1472/SST25VF016.o
 .gnu.attributes
                0x000003b0       0x10 build/default_-_avec_Bootloader/production/_ext/1472/drv_spi.o
 .gnu.attributes
                0x000003c0       0x10 build/default_-_avec_Bootloader/production/_ext/1472/mcp7941.o
 .gnu.attributes
                0x000003d0       0x10 build/default_-_avec_Bootloader/production/_ext/1472/RTC.o
 .gnu.attributes
                0x000003e0       0x10 build/default_-_avec_Bootloader/production/_ext/1472/0_SparkBox.o
 .gnu.attributes
                0x000003f0       0x10 build/default_-_avec_Bootloader/production/_ext/1472/Lcd.o
 .gnu.attributes
                0x00000400       0x10 build/default_-_avec_Bootloader/production/_ext/1472/Analogique.o
 .gnu.attributes
                0x00000410       0x10 build/default_-_avec_Bootloader/production/_ext/1472/Evse.o
 .gnu.attributes
                0x00000420       0x10 build/default_-_avec_Bootloader/production/_ext/1472/i2c.o
 .gnu.attributes
                0x00000430       0x10 build/default_-_avec_Bootloader/production/_ext/1472/BD_sst.o
 .gnu.attributes
                0x00000440       0x10 c:/program files (x86)/microchip/xc32/v1.31/bin/../lib/gcc/pic32mx/4.5.2/../../../../pic32mx/lib/size\libmchp_peripheral_32MX695F512L.a(soft_reset_lib.o)
 .gnu.attributes
                0x00000450       0x10 c:/program files (x86)/microchip/xc32/v1.31/bin/../lib/gcc/pic32mx/4.5.2/../../../../pic32mx/lib/size\libmchp_peripheral_32MX695F512L.a(pcache.o)
 .gnu.attributes
                0x00000460       0x10 c:/program files (x86)/microchip/xc32/v1.31/bin/../lib/gcc/pic32mx/4.5.2/../../../../pic32mx/lib/size\libmchp_peripheral_32MX695F512L.a(int_disable_interrupts_lib.o)
 .gnu.attributes
                0x00000470       0x10 c:/program files (x86)/microchip/xc32/v1.31/bin/../lib/gcc/pic32mx/4.5.2/../../../../pic32mx/lib/size\libmchp_peripheral_32MX695F512L.a(int_restore_interrupts_lib.o)
 .gnu.attributes
                0x00000480       0x10 c:/program files (x86)/microchip/xc32/v1.31/bin/../lib/gcc/pic32mx/4.5.2/../../../../pic32mx/lib/size\libmchp_peripheral_32MX695F512L.a(int_enable_mv_int_lib.o)
 .gnu.attributes
                0x00000490       0x10 c:/program files (x86)/microchip/xc32/v1.31/bin/../lib/gcc/pic32mx/4.5.2/../../../../pic32mx/lib/size\libmchp_peripheral_32MX695F512L.a(int_tbl_lib.o)
 .gnu.attributes
                0x000004a0       0x10 c:/program files (x86)/microchip/xc32/v1.31/bin/../lib/gcc/pic32mx/4.5.2/../../../../pic32mx/lib/size\libmchp_peripheral_32MX695F512L.a(uart_lib.o)
 .gnu.attributes
                0x000004b0       0x10 c:/program files (x86)/microchip/xc32/v1.31/bin/../lib/gcc/pic32mx/4.5.2/../../../../pic32mx/lib/size\libmchp_peripheral_32MX695F512L.a(I2CAcknowledgeByte.o)
 .gnu.attributes
                0x000004c0       0x10 c:/program files (x86)/microchip/xc32/v1.31/bin/../lib/gcc/pic32mx/4.5.2/../../../../pic32mx/lib/size\libmchp_peripheral_32MX695F512L.a(I2CBusIsIdle.o)
 .gnu.attributes
                0x000004d0       0x10 c:/program files (x86)/microchip/xc32/v1.31/bin/../lib/gcc/pic32mx/4.5.2/../../../../pic32mx/lib/size\libmchp_peripheral_32MX695F512L.a(I2CByteWasAcknowledged.o)
 .gnu.attributes
                0x000004e0       0x10 c:/program files (x86)/microchip/xc32/v1.31/bin/../lib/gcc/pic32mx/4.5.2/../../../../pic32mx/lib/size\libmchp_peripheral_32MX695F512L.a(I2CEnable.o)
 .gnu.attributes
                0x000004f0       0x10 c:/program files (x86)/microchip/xc32/v1.31/bin/../lib/gcc/pic32mx/4.5.2/../../../../pic32mx/lib/size\libmchp_peripheral_32MX695F512L.a(I2CGetByte.o)
 .gnu.attributes
                0x00000500       0x10 c:/program files (x86)/microchip/xc32/v1.31/bin/../lib/gcc/pic32mx/4.5.2/../../../../pic32mx/lib/size\libmchp_peripheral_32MX695F512L.a(I2CGetStatus.o)
 .gnu.attributes
                0x00000510       0x10 c:/program files (x86)/microchip/xc32/v1.31/bin/../lib/gcc/pic32mx/4.5.2/../../../../pic32mx/lib/size\libmchp_peripheral_32MX695F512L.a(I2CReceivedDataIsAvailable.o)
 .gnu.attributes
                0x00000520       0x10 c:/program files (x86)/microchip/xc32/v1.31/bin/../lib/gcc/pic32mx/4.5.2/../../../../pic32mx/lib/size\libmchp_peripheral_32MX695F512L.a(I2CReceiverEnable.o)
 .gnu.attributes
                0x00000530       0x10 c:/program files (x86)/microchip/xc32/v1.31/bin/../lib/gcc/pic32mx/4.5.2/../../../../pic32mx/lib/size\libmchp_peripheral_32MX695F512L.a(I2CRepeatStart.o)
 .gnu.attributes
                0x00000540       0x10 c:/program files (x86)/microchip/xc32/v1.31/bin/../lib/gcc/pic32mx/4.5.2/../../../../pic32mx/lib/size\libmchp_peripheral_32MX695F512L.a(I2CSendByte.o)
 .gnu.attributes
                0x00000550       0x10 c:/program files (x86)/microchip/xc32/v1.31/bin/../lib/gcc/pic32mx/4.5.2/../../../../pic32mx/lib/size\libmchp_peripheral_32MX695F512L.a(I2CSetFrequency.o)
 .gnu.attributes
                0x00000560       0x10 c:/program files (x86)/microchip/xc32/v1.31/bin/../lib/gcc/pic32mx/4.5.2/../../../../pic32mx/lib/size\libmchp_peripheral_32MX695F512L.a(I2CStart.o)
 .gnu.attributes
                0x00000570       0x10 c:/program files (x86)/microchip/xc32/v1.31/bin/../lib/gcc/pic32mx/4.5.2/../../../../pic32mx/lib/size\libmchp_peripheral_32MX695F512L.a(I2CStop.o)
 .gnu.attributes
                0x00000580       0x10 c:/program files (x86)/microchip/xc32/v1.31/bin/../lib/gcc/pic32mx/4.5.2/../../../../pic32mx/lib/size\libmchp_peripheral_32MX695F512L.a(I2CTransmissionHasCompleted.o)
 .gnu.attributes
                0x00000590       0x10 c:/program files (x86)/microchip/xc32/v1.31/bin/../lib/gcc/pic32mx/4.5.2/../../../../pic32mx/lib/size\libmchp_peripheral_32MX695F512L.a(I2CTransmitterIsReady.o)
 .gnu.attributes
                0x000005a0       0x10 c:/program files (x86)/microchip/xc32/v1.31/bin/../lib/gcc/pic32mx/4.5.2/../../../../pic32mx/lib/size\libmchp_peripheral_32MX695F512L.a(int_enable_interrupts_lib.o)
 .gnu.attributes
                0x000005b0       0x10 c:/program files (x86)/microchip/xc32/v1.31/bin/../lib/gcc/pic32mx/4.5.2/../../../../pic32mx/lib/size\libmchp_peripheral_32MX695F512L.a(I2CPrivate.o)
 .gnu.attributes
                0x000005c0       0x10 c:/program files (x86)/microchip/xc32/v1.31/bin/../lib/gcc/pic32mx/4.5.2/size\libgcc.a(_divdi3.o)
 .gnu.attributes
                0x000005d0       0x10 c:/program files (x86)/microchip/xc32/v1.31/bin/../lib/gcc/pic32mx/4.5.2/size\libgcc.a(_udivdi3.o)
 .gnu.attributes
                0x000005e0       0x10 c:/program files (x86)/microchip/xc32/v1.31/bin/../lib/gcc/pic32mx/4.5.2/size\libgcc.a(floatunsisf.o)
 .gnu.attributes
                0x000005f0       0x10 c:/program files (x86)/microchip/xc32/v1.31/bin/../lib/gcc/pic32mx/4.5.2/../../../../pic32mx/lib/size\libpic32.a(default-bootstrap-exception-handler.o)
 .gnu.attributes
                0x00000600       0x10 c:/program files (x86)/microchip/xc32/v1.31/bin/../lib/gcc/pic32mx/4.5.2/../../../../pic32mx/lib/size\libpic32.a(default-on-reset.o)
 .gnu.attributes
                0x00000610       0x10 c:/program files (x86)/microchip/xc32/v1.31/bin/../lib/gcc/pic32mx/4.5.2/../../../../pic32mx/lib/size\libpic32.a(default-on-bootstrap.o)
 .gnu.attributes
                0x00000620       0x10 c:/program files (x86)/microchip/xc32/v1.31/bin/../lib/gcc/pic32mx/4.5.2/../../../../pic32mx/lib/size\libm.a(w_sqrtf.o)
 .gnu.attributes
                0x00000630       0x10 c:/program files (x86)/microchip/xc32/v1.31/bin/../lib/gcc/pic32mx/4.5.2/../../../../pic32mx/lib/size\libm.a(s_lib_ver.o)
 .gnu.attributes
                0x00000640       0x10 c:/program files (x86)/microchip/xc32/v1.31/bin/../lib/gcc/pic32mx/4.5.2/../../../../pic32mx/lib/size\libpic32.a(errno.o)
 .gnu.attributes
                0x00000650       0x10 c:/program files (x86)/microchip/xc32/v1.31/bin/../lib/gcc/pic32mx/4.5.2/../../../../pic32mx/lib/size\libc.a(atoi.o)
 .gnu.attributes
                0x00000660       0x10 c:/program files (x86)/microchip/xc32/v1.31/bin/../lib/gcc/pic32mx/4.5.2/../../../../pic32mx/lib/size\libc.a(atol.o)
 .gnu.attributes
                0x00000670       0x10 c:/program files (x86)/microchip/xc32/v1.31/bin/../lib/gcc/pic32mx/4.5.2/../../../../pic32mx/lib/size\libc.a(ctype.o)
 .gnu.attributes
                0x00000680       0x10 c:/program files (x86)/microchip/xc32/v1.31/bin/../lib/gcc/pic32mx/4.5.2/../../../../pic32mx/lib/size\libc.a(ctypef.o)
 .gnu.attributes
                0x00000690       0x10 c:/program files (x86)/microchip/xc32/v1.31/bin/../lib/gcc/pic32mx/4.5.2/../../../../pic32mx/lib/size\libc.a(ltoa.o)
 .gnu.attributes
                0x000006a0       0x10 c:/program files (x86)/microchip/xc32/v1.31/bin/../lib/gcc/pic32mx/4.5.2/../../../../pic32mx/lib/size\libc.a(mktime.o)
 .gnu.attributes
                0x000006b0       0x10 c:/program files (x86)/microchip/xc32/v1.31/bin/../lib/gcc/pic32mx/4.5.2/../../../../pic32mx/lib/size\libc.a(strcat.o)
 .gnu.attributes
                0x000006c0       0x10 c:/program files (x86)/microchip/xc32/v1.31/bin/../lib/gcc/pic32mx/4.5.2/../../../../pic32mx/lib/size\libc.a(strchr.o)
 .gnu.attributes
                0x000006d0       0x10 c:/program files (x86)/microchip/xc32/v1.31/bin/../lib/gcc/pic32mx/4.5.2/../../../../pic32mx/lib/size\libc.a(strncmp.o)
 .gnu.attributes
                0x000006e0       0x10 c:/program files (x86)/microchip/xc32/v1.31/bin/../lib/gcc/pic32mx/4.5.2/../../../../pic32mx/lib/size\libc.a(strncpy.o)
 .gnu.attributes
                0x000006f0       0x10 c:/program files (x86)/microchip/xc32/v1.31/bin/../lib/gcc/pic32mx/4.5.2/../../../../pic32mx/lib/size\libc.a(strstr.o)
 .gnu.attributes
                0x00000700       0x10 c:/program files (x86)/microchip/xc32/v1.31/bin/../lib/gcc/pic32mx/4.5.2/../../../../pic32mx/lib/size\libc.a(sprintf_cdnopsuxX.eo)
 .gnu.attributes
                0x00000710       0x10 c:/program files (x86)/microchip/xc32/v1.31/bin/../lib/gcc/pic32mx/4.5.2/../../../../pic32mx/lib/size\libc.a(doprnt_cdnopsuxX.eo)
 .gnu.attributes
                0x00000720       0x10 c:/program files (x86)/microchip/xc32/v1.31/bin/../lib/gcc/pic32mx/4.5.2/../../../../pic32mx/lib/size\libc.a(_fputc_simple.o)
 .gnu.attributes
                0x00000730       0x10 c:/program files (x86)/microchip/xc32/v1.31/bin/../lib/gcc/pic32mx/4.5.2/../../../../pic32mx/lib/size\libc.a(_iob.o)
 .gnu.attributes
                0x00000740       0x10 c:/program files (x86)/microchip/xc32/v1.31/bin/../lib/gcc/pic32mx/4.5.2/../../../../pic32mx/lib/size\libc.a(_flsbuf_simple.o)
 .gnu.attributes
                0x00000750       0x10 c:/program files (x86)/microchip/xc32/v1.31/bin/../lib/gcc/pic32mx/4.5.2/../../../../pic32mx/lib/size\libpic32.a(write.o)
 .gnu.attributes
                0x00000760       0x10 c:/program files (x86)/microchip/xc32/v1.31/bin/../lib/gcc/pic32mx/4.5.2/../../../../pic32mx/lib/size\libpic32.a(_mon_putc.o)
 .gnu.attributes
                0x00000770       0x10 c:/program files (x86)/microchip/xc32/v1.31/bin/../lib/gcc/pic32mx/4.5.2/../../../../pic32mx/lib/size\libpic32.a(xc32_uart.o)
 .gnu.attributes
                0x00000780       0x10 c:/program files (x86)/microchip/xc32/v1.31/bin/../lib/gcc/pic32mx/4.5.2/size\libgcc.a(_lshrdi3.o)
 .gnu.attributes
                0x00000790       0x10 c:/program files (x86)/microchip/xc32/v1.31/bin/../lib/gcc/pic32mx/4.5.2/size\libgcc.a(_umoddi3.o)
LOAD c:/program files (x86)/microchip/xc32/v1.31/bin/../lib/gcc/pic32mx/4.5.2/size\libgcc.a
START GROUP
LOAD c:/program files (x86)/microchip/xc32/v1.31/bin/../lib/gcc/pic32mx/4.5.2/../../../../pic32mx/lib/size\libpic32.a
LOAD c:/program files (x86)/microchip/xc32/v1.31/bin/../lib/gcc/pic32mx/4.5.2/../../../../pic32mx/lib/size\libdebug.a
LOAD c:/program files (x86)/microchip/xc32/v1.31/bin/../lib/gcc/pic32mx/4.5.2/../../../../pic32mx/lib/size\libm.a
LOAD c:/program files (x86)/microchip/xc32/v1.31/bin/../lib/gcc/pic32mx/4.5.2/../../../../pic32mx/lib/size\libe.a
LOAD c:/program files (x86)/microchip/xc32/v1.31/bin/../lib/gcc/pic32mx/4.5.2/../../../../pic32mx/lib/size\libdsp.a
LOAD c:/program files (x86)/microchip/xc32/v1.31/bin/../lib/gcc/pic32mx/4.5.2/size\libgcc.a
LOAD c:/program files (x86)/microchip/xc32/v1.31/bin/../lib/gcc/pic32mx/4.5.2/../../../../pic32mx/lib/size\libpic32.a
LOAD c:/program files (x86)/microchip/xc32/v1.31/bin/../lib/gcc/pic32mx/4.5.2/../../../../pic32mx/lib/size\libc.a
LOAD c:/program files (x86)/microchip/xc32/v1.31/bin/../lib/gcc/pic32mx/4.5.2/../../../../pic32mx/lib/size\libpic32.a
END GROUP
LOAD c:/program files (x86)/microchip/xc32/v1.31/bin/../lib/gcc/pic32mx/4.5.2/size\libgcc.a
LOAD c:/program files (x86)/microchip/xc32/v1.31/bin/../lib/gcc/pic32mx/4.5.2/../../../../pic32mx/lib/size\debug-exception-return.o
OUTPUT(dist/default_-_avec_Bootloader/production/sparkbox.X.production.elf elf32-tradlittlemips)
LOAD stack
LOAD data_init

.reginfo        0x00000000       0x18
 .reginfo       0x00000000       0x18 c:/program files (x86)/microchip/xc32/v1.31/bin/../lib/gcc/pic32mx/4.5.2/../../../../pic32mx/lib/./proc/32MX695F512L/crt0_mips32r2.o

.stack          0xa0003820      0x400
 .stack         0xa0003820      0x400 stack

.bss            0xa0003294      0x190
 .bss           0xa0003294      0x190 build/default_-_avec_Bootloader/production/_ext/1295770447/TCP.o

.data           0xa0003424       0xa0
 .data          0xa0003424       0xa0 c:/program files (x86)/microchip/xc32/v1.31/bin/../lib/gcc/pic32mx/4.5.2/../../../../pic32mx/lib/size\libc.a(_iob.o)
                0xa0003424                _iob

.bss            0xa00034c4      0x14c
 .bss           0xa00034c4       0x78 build/default_-_avec_Bootloader/production/_ext/1295770447/MPFS2.o
 .bss           0xa000353c       0x70 build/default_-_avec_Bootloader/production/_ext/1295770447/Random.o
 .bss           0xa00035ac       0x64 build/default_-_avec_Bootloader/production/_ext/1295770447/SSL.o

.data           0xa0003610       0x50
 .data          0xa0003610       0x50 build/default_-_avec_Bootloader/production/_ext/1472/log.o
                0xa0003610                message_log

.bss            0xa0003660       0xb0
 .bss           0xa0003660       0x40 build/default_-_avec_Bootloader/production/_ext/1472/Analogique.o
                0xa0003660                readAdc
 .bss           0xa00036a0       0x40 c:/program files (x86)/microchip/xc32/v1.31/bin/../lib/gcc/pic32mx/4.5.2/../../../../pic32mx/lib/size\libc.a(_iob.o)
                0xa00036a0                _sibuf
                0xa00036c0                _sobuf
 .bss           0xa00036e0       0x30 build/default_-_avec_Bootloader/production/_ext/1295770447/DHCP.o

.data           0xa0003710       0x28
 .data          0xa0003710       0x28 build/default_-_avec_Bootloader/production/_ext/1472/RTC.o
                0xa0003710                ADTEK_Serveurs

.bss            0xa0003738       0xac
 .bss           0xa0003738       0x20 build/default_-_avec_Bootloader/production/_ext/1472/divers.o
 .bss           0xa0003758       0x18 build/default_-_avec_Bootloader/production/_ext/1295770447/ARP.o
 .bss           0xa0003770       0x14 build/default_-_avec_Bootloader/production/_ext/1472/Mynetmemo.o
 .bss           0xa0003784       0x14 build/default_-_avec_Bootloader/production/_ext/1472/RTC.o
 .bss           0xa0003798       0x14 build/default_-_avec_Bootloader/production/_ext/1472/Evse.o
 .bss           0xa00037ac       0x10 build/default_-_avec_Bootloader/production/_ext/1472/SST25VF016.o
 .bss           0xa00037bc       0x10 build/default_-_avec_Bootloader/production/_ext/1472/drv_spi.o
 .bss           0xa00037cc        0xc build/default_-_avec_Bootloader/production/_ext/1295770447/DNS.o
 .bss           0xa00037d8        0xc build/default_-_avec_Bootloader/production/_ext/1472/Temperature.o

.bss.SentTransactionID.16786
                0xa00037e4        0x4
 .bss.SentTransactionID.16786
                0xa00037e4        0x4 build/default_-_avec_Bootloader/production/_ext/1295770447/DNS.o

.data.math_errhandling_flag
                0xa00037e8        0x4
 .data.math_errhandling_flag
                0xa00037e8        0x4 c:/program files (x86)/microchip/xc32/v1.31/bin/../lib/gcc/pic32mx/4.5.2/../../../../pic32mx/lib/size\libm.a(s_lib_ver.o)
                0xa00037e8                math_errhandling

.bss.NextPort   0xa00037ec        0x2
 .bss.NextPort  0xa00037ec        0x2 build/default_-_avec_Bootloader/production/_ext/1295770447/TCP.o

.bss.NextPort.16758
                0xa00037ee        0x2
 .bss.NextPort.16758
                0xa00037ee        0x2 build/default_-_avec_Bootloader/production/_ext/1295770447/UDP.o

._debug_exception
                0xbfc00480       0x24
 ._debug_exception
                0xbfc00480       0x24 c:/program files (x86)/microchip/xc32/v1.31/bin/../lib/gcc/pic32mx/4.5.2/../../../../pic32mx/lib/size\debug-exception-return.o
                0xbfc00480                __DbgExecReturn

.config_BFC02FFC
                0xbfc02ffc        0x4
 .config_BFC02FFC
                0xbfc02ffc        0x4 build/default_-_avec_Bootloader/production/_ext/1472/0_SparkBox.o

.config_BFC02FF8
                0xbfc02ff8        0x4
 .config_BFC02FF8
                0xbfc02ff8        0x4 build/default_-_avec_Bootloader/production/_ext/1472/0_SparkBox.o

.config_BFC02FF4
                0xbfc02ff4        0x4
 .config_BFC02FF4
                0xbfc02ff4        0x4 build/default_-_avec_Bootloader/production/_ext/1472/0_SparkBox.o

.rodata         0x9d007e00     0xa7b8
 .rodata        0x9d007e00     0xa7b8 build/default_-_avec_Bootloader/production/_ext/1472/MPFSImg2.o
                0x9d007e00                MPFS_Start

.text           0x9d0125b8    0x1b0d8
 .text          0x9d0125b8     0x4da4 build/default_-_avec_Bootloader/production/_ext/1295770447/TCP.o
                0x9d0130d8                TCPInit
                0x9d013248                TCPOpen
                0x9d0134b4                TCPWasReset
                0x9d013504                TCPIsConnected
                0x9d013540                TCPDisconnect
                0x9d01375c                TCPClose
                0x9d013798                TCPGetRemoteInfo
                0x9d0137f8                TCPFlush
                0x9d01385c                TCPIsPutReady
                0x9d01393c                TCPPut
                0x9d013b28                TCPPutArray
                0x9d013de8                TCPPutString
                0x9d013e30                TCPGetTxFIFOFull
                0x9d013e94                TCPIsGetReady
                0x9d013efc                TCPDiscard
                0x9d013f60                TCPGet
                0x9d014080                TCPGetArray
                0x9d014214                TCPGetRxFIFOFree
                0x9d0142b8                TCPPeekArray
                0x9d014410                TCPPeek
                0x9d01443c                TCPFindArrayEx
                0x9d014758                TCPFindEx
                0x9d014798                TCPStartSSLClient
                0x9d0148a8                TCPStartSSLClientEx
                0x9d0149bc                TCPStartSSLServer
                0x9d014af0                TCPAddSSLListener
                0x9d014b7c                TCPRequestSSLMessage
                0x9d014bdc                TCPSSLIsHandshaking
                0x9d014c14                TCPIsSSL
                0x9d014c50                TCPAdjustFIFOSize
                0x9d014fa0                TCPSSLHandshakeComplete
                0x9d014fd8                TCPSSLDecryptMAC
                0x9d01520c                TCPSSLInPlaceMACEncrypt
                0x9d015464                TCPSSLPutRecordHeader
                0x9d0155c4                TCPSSLGetPendingTxSize
                0x9d015630                TCPTick
                0x9d015f54                TCPSSLHandleIncoming
                0x9d01628c                TCPProcess
 .text          0x9d01735c     0x3788 build/default_-_avec_Bootloader/production/_ext/1295770447/HTTP2.o
                0x9d0175f4                HTTPPrint_
                0x9d017614                HTTPInit
                0x9d0176f4                HTTPURLDecode
                0x9d0177fc                HTTPGetArg
                0x9d01787c                HTTPReadPostName
                0x9d0178d4                HTTPReadPostValue
                0x9d017988                HTTPIncFile
                0x9d017acc                HTTPPrint
                0x9d019944                HTTPServer
 .text          0x9d01aae4     0x32a0 build/default_-_avec_Bootloader/production/_ext/1295770447/SSL.o
                0x9d01bac0                SSLInit
                0x9d01bb1c                SSLPeriodic
                0x9d01bc7c                SSLStartSession
                0x9d01be0c                SSLTerminate
                0x9d01be94                SSLStartPartialRecord
                0x9d01bf00                SSLRxHandshake
                0x9d01cbe4                SSLMACBegin
                0x9d01ccc4                SSLTxRecord
                0x9d01cdc8                SSLTxMessage
                0x9d01d830                SSLMACAdd
                0x9d01d848                SSLMACCalc
                0x9d01d8f0                SSLRxRecord
 .text          0x9d01dd84     0x17ec build/default_-_avec_Bootloader/production/_ext/1472/HTTP_ADTEK.o
                0x9d01dd84                HTTPNeedsAuth
                0x9d01debc                HTTPCheckAuth
                0x9d01dfac                HTTPExecutePost
                0x9d01e0f8                HTTPPrint_builddate
                0x9d01e180                ADTEK_HTTP_Return
                0x9d01e1e0                HTTPPrint_Relais
                0x9d01e280                HTTPPrintIP
                0x9d01e324                HTTPPrint_reboot
                0x9d01e334                HTTPPrint_rebootaddr
                0x9d01e3d8                HTTPPrint_versiontcpip
                0x9d01e3fc                HTTPPrint_versionsoftadt
                0x9d01e420                HTTPPrint_versionhardadt
                0x9d01e508                HTTPPrint_serialadt
                0x9d01e5e8                HTTPPrint_u
                0x9d01e6b8                HTTPPrint_day
                0x9d01e728                HTTPPrint_hour
                0x9d01e794                HTTPPrint_status_ok
                0x9d01e7f4                HTTPPrint_status_fail
                0x9d01e854                HTTPGetRaz_Usine
                0x9d01e8b0                HTTPGetI2c
                0x9d01e9f0                HTTPGetTemp
                0x9d01ea58                HTTPGetRelais
                0x9d01eb84                HTTPExecuteGet
                0x9d01ef28                HTTPPrint_debug_bt
                0x9d01ef78                HTTPPrint_opto1
                0x9d01efc0                HTTPPrint_opto2
                0x9d01f008                HTTPPrint_header
                0x9d01f208                HTTPPrint_rel_existe
                0x9d01f270                HTTPPrint_Uptime
                0x9d01f2bc                HTTPPrint_led
                0x9d01f324                HTTPPrint_bp
                0x9d01f370                HTTPPrint_pilot
                0x9d01f4ac                HTTPPrint_ac
                0x9d01f518                HTTPPrint_temp
 .text          0x9d01f570     0x17e0 build/default_-_avec_Bootloader/production/_ext/1295770447/ENCX24J600.o
                0x9d01fc74                MACIsLinked
                0x9d01fc94                MACIsTxReady
                0x9d01fcb8                MACDiscardRx
                0x9d01fd28                MACGetFreeRxSize
                0x9d01fd60                MACGetHeader
                0x9d01fe98                MACPutHeader
                0x9d01ff1c                MACFlush
                0x9d01ffc4                MACSetReadPtrInRx
                0x9d01fff0                MACSetWritePtr
                0x9d02002c                MACSetReadPtr
                0x9d020068                MACCalcRxChecksum
                0x9d020140                CalcIPBufferChecksum
                0x9d0201fc                MACMemCopyAsync
                0x9d0202ec                MACIsMemCopyDone
                0x9d02033c                MACGet
                0x9d020360                MACGetArray
                0x9d0203c4                MACPut
                0x9d0203e8                MACPutArray
                0x9d0203f0                SetCLKOUT
                0x9d020440                GetCLKOUT
                0x9d020460                ReadPHYReg
                0x9d0204b0                WritePHYReg
                0x9d0204fc                MACPowerUp
                0x9d02056c                MACEDPowerDown
                0x9d020578                MACPowerDown
                0x9d020600                MACInit
                0x9d020868                RSAInit
                0x9d020870                RSABeginUsage
                0x9d0209a4                RSAEndUsage
                0x9d0209d4                RSASetData
                0x9d020b24                RSASetResult
                0x9d020b40                RSASetE
                0x9d020bec                RSASetN
                0x9d020c5c                RSAStep
 .text          0x9d020d50     0x169c build/default_-_avec_Bootloader/production/_ext/1472/Teleinfo.o
                0x9d020d50                Process_Jour_Tele
                0x9d020d90                Process_Trame_Tele
                0x9d02174c                Efface_Compteur_Tele
                0x9d0217e8                WattToKwatt
                0x9d0218ac                PtecToString
                0x9d021aac                OptarifToString
                0x9d021bd0                PuissanceToStr
                0x9d021c80                Process_Calcul_Index
                0x9d021df8                TeleInit
                0x9d021eec                Process_Calcul_iinst
                0x9d021f88                Process_Calcul_Teleinfo
                0x9d022124                Process_Tele
 .text          0x9d0223ec     0x13fc build/default_-_avec_Bootloader/production/_ext/1295770447/SMTP.o
                0x9d022564                SMTPBeginUsage
                0x9d0225d0                SMTPEndUsage
                0x9d022654                SMTPTask
                0x9d023608                SMTPSendMail
                0x9d02361c                SMTPIsBusy
                0x9d023628                SMTPIsPutReady
                0x9d023648                SMTPPut
                0x9d023714                SMTPPutArray
                0x9d023774                SMTPPutString
                0x9d0237cc                SMTPFlush
                0x9d0237d4                SMTPPutDone
 .text          0x9d0237e8     0x10fc build/default_-_avec_Bootloader/production/_ext/1472/HTTP_Parametres.o
                0x9d0237e8                HTTPPostParametres
                0x9d023f8c                HTTPPostInstallateur
                0x9d024160                HTTPPrint_email_mode
                0x9d02419c                HTTPPrint_monit_mode
                0x9d0241d8                HTTPPrint_menu_mode
                0x9d024214                HTTPPrint_gmt
                0x9d024260                HTTPPrint_config
                0x9d024898                HTTPPrint_Erreur_Parametre
 .text          0x9d0248e4      0xec8 build/default_-_avec_Bootloader/production/_ext/1472/Evse.o
                0x9d0248e4                Pilot
                0x9d0249f8                Init_EVSE
                0x9d024a4c                Charge
                0x9d024b50                Process_BP
                0x9d024bd0                Process_Opto
                0x9d024cd0                Init_Timer_1kHz
                0x9d024d34                Init_1kHz_DutyCycle
                0x9d024dc4                _T3Interrupt
                0x9d024efc                _T2Interrupt
                0x9d02503c                Amperage
                0x9d0250f0                Process_EVSE
 .text          0x9d0257ac      0xeac build/default_-_avec_Bootloader/production/_ext/1472/Eeprom_i2c.o
                0x9d0257ac                Init_eeprom
                0x9d0257e8                i2c_wait
                0x9d02580c                Lit_Octet_Eeprom
                0x9d0259b0                Ecrit_Octet_Eeprom
                0x9d025b44                Eeprom_Ecriture_IP
                0x9d025bd4                Eeprom_RAZ_IP
                0x9d025d24                Eeprom_Lecture_IP
                0x9d025e94                Eeprom_Ecriture_Regul
                0x9d025f24                Eeprom_Lecture_Regul
                0x9d0260bc                Eeprom_Raz_Regul
                0x9d0262ac                Controle_Coherence_Regul
                0x9d0262cc                Eeprom_Ecriture_User
                0x9d02635c                Eeprom_Lecture_User
                0x9d0263d4                Eeprom_Raz_User
                0x9d026468                Eeprom_Ecriture_Mynetmemo
                0x9d0264f8                Eeprom_Lecture_Mynetmemo
                0x9d026570                Eeprom_Raz_Mynetmemo
                0x9d026638                Eeprom_Ecriture_Config
                0x9d02664c                Eeprom_Lecture_Config
 .text          0x9d026658      0xd98 build/default_-_avec_Bootloader/production/_ext/1295770447/DHCP.o
                0x9d026dd0                DHCPInit
                0x9d026e48                DHCPDisable
                0x9d026e8c                DHCPEnable
                0x9d026eb8                DHCPIsEnabled
                0x9d026ec8                DHCPIsBound
                0x9d026ed8                DHCPStateChanged
                0x9d026f08                DHCPIsServerDetected
                0x9d026f18                DHCPTempIPAddr
                0x9d026f34                DHCPTask
 .text          0x9d0273f0      0xc8c build/default_-_avec_Bootloader/production/_ext/1472/0_SparkBox.o
                0x9d0273f0                _general_exception_handler
                0x9d027470                Process_Monitoring
                0x9d0275ac                Raz_Usine
                0x9d0276a8                Initialisation_Peripheriques
                0x9d027908                main
 .text          0x9d02807c      0xc64 build/default_-_avec_Bootloader/production/_ext/1472/RTC.o
                0x9d02807c                BCD2hex
                0x9d02809c                hex2BCD
                0x9d0280c4                ConvertUtcSecToString
                0x9d028390                date_jh
                0x9d0283c8                ExtractUTCAnneeMoisJour
                0x9d0284e4                ExtractUTC_Temps
                0x9d02866c                Analyse_Reponse_ADTEK_TS
                0x9d0286bc                RTC_Mise_a_jour
                0x9d0288d8                Process_ADTEK_Get_Timestamp
 .text          0x9d028ce0      0xc50 build/default_-_avec_Bootloader/production/_ext/1472/HTTP_Index.o
                0x9d028ce0                HTTPPrint_index_message1
                0x9d028d04                HTTPPrint_index_erreur1
                0x9d028d28                HTTPPrint_prod_mois
                0x9d028d30                HTTPPrint_prod_jour
                0x9d028d38                HTTPPrint_prod_heure
                0x9d028d40                HTTPPrint_ls
                0x9d028da0                HTTPPrint_capteur_temp
                0x9d028ea4                HTTPPrint_affiche_teleinfo
                0x9d029064                HTTPPrint_debug1
                0x9d029088                HTTPPrint_Amp_Programmes
                0x9d029130                HTTPPrint_Courant_Fuite
                0x9d029210                HTTPPrint_Test_Relais
                0x9d0292b0                HTTPPrint_Test_Diode
                0x9d029350                HTTPPrint_erreur_xml
                0x9d029478                HTTPPrint_temps_charge
                0x9d02959c                HTTPPrint_amp
                0x9d0295c0                HTTPPrint_state
                0x9d0296a8                HTTPPrint_Pilot_Value
                0x9d0296f8                HTTPPrint_Ac1
                0x9d029748                HTTPPrint_Ac2
                0x9d029798                HTTPPrint_Temp
                0x9d0297e8                HTTPPrint_Cour1
                0x9d02985c                HTTPPrint_Cour2
                0x9d0298e0                HTTPPrint_Vref2
 .text          0x9d029930      0xb70 build/default_-_avec_Bootloader/production/_ext/1472/HTTP_Teleinfo.o
                0x9d029930                HTTPPostTeleinfo
                0x9d029968                HTTPPrint_tele
 .text          0x9d02a4a0      0xae4 build/default_-_avec_Bootloader/production/_ext/1295770447/Helpers.o
                0x9d02a4a0                LFSRRand
                0x9d02a4dc                LFSRSeedRand
                0x9d02a52c                GenerateRandomDWORD
                0x9d02a760                StringToIPAddress
                0x9d02a8c0                Base64Decode
                0x9d02aa24                Base64Encode
                0x9d02ab54                uitoa
                0x9d02abe4                hexatob
                0x9d02ac48                btohexa_high
                0x9d02ac60                btohexa_low
                0x9d02ac78                stricmppgm2ram
                0x9d02ad04                swaps
                0x9d02ad20                swapl
                0x9d02ad60                CalcIPChecksum
                0x9d02adcc                strupr
                0x9d02ae08                FormatNetBIOSName
                0x9d02ae7c                strnchr
                0x9d02aeb8                strncpy_m
 .text          0x9d02af84      0xaa4 build/default_-_avec_Bootloader/production/_ext/1295770447/Hashes.o
                0x9d02b384                MD5Initialize
                0x9d02b3c0                MD5AddData
                0x9d02b48c                MD5Calculate
                0x9d02b650                SHA1Initialize
                0x9d02b69c                SHA1AddData
                0x9d02b770                HashAddData
                0x9d02b7e4                SHA1Calculate
 .text          0x9d02ba28      0xa08 build/default_-_avec_Bootloader/production/_ext/1295770447/MPFS2.o
                0x9d02ba28                MPFSClose
                0x9d02ba5c                MPFSGet
                0x9d02baec                MPFSGetArray
                0x9d02bc24                MPFSOpenID
                0x9d02bce0                MPFSOpen
                0x9d02bed0                MPFSInit
                0x9d02bf74                MPFSGetLong
                0x9d02bf9c                MPFSGetTimestamp
                0x9d02bff4                MPFSGetMicrotime
                0x9d02c04c                MPFSGetFlags
                0x9d02c0a4                MPFSGetSize
                0x9d02c0fc                MPFSGetBytesRem
                0x9d02c138                MPFSGetStartAddr
                0x9d02c190                MPFSGetEndAddr
                0x9d02c1f0                MPFSSeek
                0x9d02c33c                MPFSGetFilename
                0x9d02c3d0                MPFSGetPosition
                0x9d02c410                MPFSGetID
 .text          0x9d02c430      0x974 build/default_-_avec_Bootloader/production/_ext/1295770447/UDP.o
                0x9d02c430                UDPOpenEx
                0x9d02c57c                UDPTask
                0x9d02c70c                UDPIsOpened
                0x9d02c734                UDPClose
                0x9d02c76c                UDPInit
                0x9d02c7bc                UDPSetTxBuffer
                0x9d02c7e8                UDPSetRxBuffer
                0x9d02c818                UDPIsPutReady
                0x9d02c874                UDPPut
                0x9d02c8c8                UDPPutArray
                0x9d02c92c                UDPPutString
                0x9d02c960                UDPFlush
                0x9d02ca94                UDPIsGetReady
                0x9d02caec                UDPGet
                0x9d02cb44                UDPGetArray
                0x9d02cbac                UDPDiscard
                0x9d02cbf4                UDPProcess
 .text          0x9d02cda4      0x8ec c:/program files (x86)/microchip/xc32/v1.31/bin/../lib/gcc/pic32mx/4.5.2/../../../../pic32mx/lib/size\libm.a(fp32.o)
                0x9d02cda4                fpsub
                0x9d02cda4                __subsf3
                0x9d02cdac                __addsf3
                0x9d02cdac                fpadd
                0x9d02d018                __mulsf3
                0x9d02d018                fpmul
                0x9d02d1d0                fpdiv
                0x9d02d1d0                __divsf3
                0x9d02d3fc                sitofp
                0x9d02d3fc                litofp
                0x9d02d3fc                __floatsisf
                0x9d02d458                ultofp
                0x9d02d458                uitofp
                0x9d02d4a4                fptosi
                0x9d02d4a4                fptoli
                0x9d02d4a4                __fixsfsi
                0x9d02d51c                fptoui
                0x9d02d51c                __fixunssfsi
                0x9d02d51c                fptoul
                0x9d02d590                __nesf2
                0x9d02d590                fpcmp
                0x9d02d590                __eqsf2
                0x9d02d590                __gesf2
                0x9d02d590                __ltsf2
                0x9d02d590                __gtsf2
                0x9d02d590                __lesf2
                0x9d02d624                fpfabs
                0x9d02d624                fabsf
                0x9d02d634                __negsf2
                0x9d02d644                fpnan
                0x9d02d644                nanf

.text._vfprintf_cdnopsuxX
                0x9d02d690      0x8b8
 .text._vfprintf_cdnopsuxX
                0x9d02d690      0x8b8 c:/program files (x86)/microchip/xc32/v1.31/bin/../lib/gcc/pic32mx/4.5.2/../../../../pic32mx/lib/size\libc.a(doprnt_cdnopsuxX.eo)
                0x9d02d690                _vfprintf_cdnopsuxX

.text           0x9d02df48     0x20a0
 .text          0x9d02df48      0x890 build/default_-_avec_Bootloader/production/_ext/1295770447/DNS.o
                0x9d02e0a0                DNSBeginUsage
                0x9d02e0cc                DNSEndUsage
                0x9d02e114                DNSResolve
                0x9d02e184                DNSIsResolved
 .text          0x9d02e7d8      0x820 build/default_-_avec_Bootloader/production/_ext/1472/SST25VF016.o
                0x9d02e7d8                SST25ReadByte
                0x9d02e8c8                SST25ReadWord
                0x9d02e90c                SST25WriteEnable
                0x9d02e990                SST25IsWriteBusy
                0x9d02ea3c                SST25WriteByte
                0x9d02eb40                SST25WriteWord
                0x9d02eb7c                SST25WriteArray
                0x9d02ec34                SST25ReadArray
                0x9d02ed4c                SST25ChipErase
                0x9d02edf4                SST25ResetWriteProtection
                0x9d02eed4                SST25Init
                0x9d02ef14                SST25SectorErase
 .text          0x9d02eff8      0x804 build/default_-_avec_Bootloader/production/_ext/1472/rs232.o
                0x9d02eff8                Initialisation_Rs232
                0x9d02f1c8                Tele1IsReadReady
                0x9d02f210                Tele2IsReadReady
                0x9d02f230                UartIsReadReady
                0x9d02f268                Tele1Read
                0x9d02f34c                Tele2Read
                0x9d02f430                UartRead
                0x9d02f46c                __U1BInterrupt
                0x9d02f634                __U3AInterrupt
 .text          0x9d02f7fc      0x7ec build/default_-_avec_Bootloader/production/_ext/1472/mcp7941.o
                0x9d02f7fc                MCP7941_Init_I2c
                0x9d02f830                MCP7941_Write
                0x9d02f8cc                MCP7941_Read
                0x9d02f9e4                MCP7941_Init
                0x9d02fad4                MCP7941_WriteLongLong
                0x9d02fba4                MCP7941_ReadLongLong
                0x9d02fc68                MCP7941_Ecris_An
                0x9d02fcbc                MCP7941_Lis_An
                0x9d02fce8                MCP7941_Ecris_Mois
                0x9d02fd28                MCP7941_Lis_Mois
                0x9d02fd50                MCP7941_Ecris_Jour
                0x9d02fd90                MCP7941_Lis_Jour
                0x9d02fdb8                MCP7941_Ecris_Heure
                0x9d02fdf8                MCP7941_Lis_Heure
                0x9d02fe20                MCP7941_Ecris_Minute
                0x9d02fe60                MCP7941_Lis_Minute
                0x9d02fe88                MCP7941_Ecris_Seconde
                0x9d02fecc                MCP7941_Lis_Seconde
                0x9d02fef4                MCP7941_Clock
                0x9d02ff34                MCP7941_Lis_UTC

.rodata         0x9d02ffe8      0x7d4
 .rodata        0x9d02ffe8      0x7d4 c:/program files (x86)/microchip/xc32/v1.31/bin/../lib/gcc/pic32mx/4.5.2/../../../../pic32mx/lib/size\libmchp_peripheral_32MX695F512L.a(int_tbl_lib.o)
                0x9d02ffe8                __IntSrcTbl
                0x9d030504                __IntVectorTbl

.text           0x9d0307bc     0x1a3c
 .text          0x9d0307bc      0x770 build/default_-_avec_Bootloader/production/_ext/1472/HTTP_Mynetmemo.o
                0x9d0307bc                HTTPPostMynetmemo
                0x9d030bf0                HTTPPrint_mynet_envoi
                0x9d030c2c                HTTPPrint_mynet_log
                0x9d030c50                HTTPPrint_mynet_pwd
                0x9d030c74                HTTPPrint_monit_fct
                0x9d030cac                HTTPPrint_monit_val
                0x9d030e6c                HTTPPrint_mynet_ser
                0x9d030e90                HTTPPrint_mynet_por
                0x9d030ed4                HTTPPrint_id_monitor
 .text          0x9d030f2c      0x6f0 build/default_-_avec_Bootloader/production/_ext/1472/divers.o
                0x9d030f2c                ctoa
                0x9d030fd8                No_Serie
                0x9d031054                Compte_Cms
                0x9d0310d8                Etat_Relais
                0x9d031144                Relais
                0x9d0311c0                PadBuffer
                0x9d0311e4                PadLeftZero
                0x9d03126c                Init_Relais_Manuel
                0x9d0312cc                Process_Relais_Manuel
                0x9d0313bc                SPICalcutateBRG
                0x9d031404                strrstr
                0x9d031498                lltoa
                0x9d0315b0                strcasecmp
 .text          0x9d03161c      0x604 build/default_-_avec_Bootloader/production/_ext/1472/Temperature.o
                0x9d03161c                Init_Filtre_Median
                0x9d0316a8                Filtre_Median
                0x9d031800                HectoTempToStr
                0x9d031984                StringToHectoTemp
                0x9d031b58                Temptostr
 .text          0x9d031c20      0x5d8 build/default_-_avec_Bootloader/production/_ext/1472/Analogique.o
                0x9d031c20                Calcul_Coeff_GFCI
                0x9d031c84                analogiqueInit
                0x9d031dd0                analogiqueStart
                0x9d031df8                ADCHandler

.dinit          0x9d0321f8      0x5b0
 .dinit         0x9d0321f8      0x5b0 data_init

.rodata         0x9d0327a8      0xb10
 .rodata        0x9d0327a8      0x5a4 build/default_-_avec_Bootloader/production/_ext/1472/HTTP_ADTEK.o
                0x9d032d44                HTML_UP_ARROW
                0x9d032d48                HTML_DOWN_ARROW
 .rodata        0x9d032d4c      0x56c build/default_-_avec_Bootloader/production/_ext/1295770447/HTTP2.o

.text           0x9d0332b8      0xe38
 .text          0x9d0332b8      0x4e0 build/default_-_avec_Bootloader/production/_ext/1472/HTTP_log.o
                0x9d0332b8                HTTPPrint_log
                0x9d033424                HTTPPrint_date_ind
                0x9d03349c                HTTPPrint_mess_log
                0x9d0334e4                HTTPPrint_fichier_csv
 .text          0x9d033798      0x4b4 build/default_-_avec_Bootloader/production/_ext/1472/Mynetmemo.o
                0x9d033798                Initialise_Mynetmemo
                0x9d0337d8                Process_Jour_Mynetmemo
                0x9d03380c                Mynetmemo_Filtre
                0x9d033878                Envoi_Donnees_Mynetmemo
                0x9d033940                Process_Mynetmemo
 .text          0x9d033c4c      0x4a4 c:/program files (x86)/microchip/xc32/v1.31/bin/../lib/gcc/pic32mx/4.5.2/size\libgcc.a(_divdi3.o)
                0x9d033c4c                __divdi3

.rodata         0x9d0340f0      0x484
 .rodata        0x9d0340f0      0x484 build/default_-_avec_Bootloader/production/_ext/1472/HTTP_Parametres.o

.text           0x9d034574     0x25a4
 .text          0x9d034574      0x464 c:/program files (x86)/microchip/xc32/v1.31/bin/../lib/gcc/pic32mx/4.5.2/size\libgcc.a(_umoddi3.o)
                0x9d034574                __umoddi3
 .text          0x9d0349d8      0x448 c:/program files (x86)/microchip/xc32/v1.31/bin/../lib/gcc/pic32mx/4.5.2/size\libgcc.a(_udivdi3.o)
                0x9d0349d8                __udivdi3
 .text          0x9d034e20      0x418 build/default_-_avec_Bootloader/production/_ext/1472/HTTP_Donnees.o
                0x9d034e20                HTTPPostDonnees
                0x9d034ffc                HTTPPrint_bdtitre
                0x9d035180                HTTPPrint_bd
                0x9d035188                HTTPPrint_mois
                0x9d0351f0                HTTPPrint_donnees_an
 .text          0x9d035238      0x404 build/default_-_avec_Bootloader/production/_ext/1472/HTTP_cmd.o
                0x9d035238                HTTPPrint_cmd
                0x9d035300                Affiche_Etat_Relais
                0x9d03548c                Affiche_Temp
                0x9d035504                Affiche_Temp_All
 .text          0x9d03563c      0x3d0 build/default_-_avec_Bootloader/production/_ext/1472/Lcd.o
                0x9d03563c                LCD_STROBE
                0x9d035690                lcd_write
                0x9d03570c                lcd_clear
                0x9d035740                lcd_home
                0x9d035774                lcd_puts
                0x9d0357c4                lcd_goto
                0x9d0357e4                lcd_clear_line
                0x9d035874                lcd_puts_line
                0x9d0358cc                lcd_init
 .text          0x9d035a0c      0x3b8 build/default_-_avec_Bootloader/production/_ext/1472/HTTP_Reseau.o
                0x9d035a0c                HTTPPostReseau
                0x9d035d20                HTTPPrint_config_ip
                0x9d035d34                HTTPPrint_config_gw
                0x9d035d48                HTTPPrint_config_subnet
                0x9d035d5c                HTTPPrint_config_dhcpchecked
                0x9d035d9c                HTTPPrint_config_dns1
                0x9d035db0                HTTPPrint_config_dns2
 .text          0x9d035dc4      0x3b0 build/default_-_avec_Bootloader/production/_ext/1295770447/NBNS.o
                0x9d035dc4                NBNSTask
 .text          0x9d036174      0x3ac build/default_-_avec_Bootloader/production/_ext/1295770447/ARP.o
                0x9d036174                ARPInit
                0x9d0361a4                ARPIsResolved
                0x9d03621c                SwapARPPacket
                0x9d036324                ARPResolve
                0x9d03639c                ARPSendPkt
                0x9d0363e8                ARPProcess
 .text          0x9d036520      0x33c build/default_-_avec_Bootloader/production/_ext/1472/BD_sst.o
                0x9d036520                BD_Enregistre_Jour_Index
                0x9d0366dc                BD_Enregistre_Coef_GFCI
                0x9d036740                BD_Lecture_Coef_GFCI
                0x9d036794                BD_Init
                0x9d0367b4                BD_Lecture_Jour_Teleinfo
                0x9d036838                BD_Erase_All
                0x9d036854                IndexTo32b
 .text          0x9d03685c      0x2bc build/default_-_avec_Bootloader/production/_ext/1295770447/StackTsk.o
                0x9d03685c                StackInit
                0x9d036918                StackTask
                0x9d036aec                StackApplications

.rodata         0x9d036b18      0x2bc
 .rodata        0x9d036b18      0x2bc build/default_-_avec_Bootloader/production/_ext/1472/Teleinfo.o

.text           0x9d036dd4      0x538
 .text          0x9d036dd4      0x2a0 c:/program files (x86)/microchip/xc32/v1.31/bin/../lib/gcc/pic32mx/4.5.2/../../../../pic32mx/lib/size\libm.a(fpsqrt32.o)
                0x9d036dd4                fpexsqrt
                0x9d036ecc                fpsqrt
                0x9d036ecc                __mchp_sqrtf
 .text          0x9d037074      0x298 build/default_-_avec_Bootloader/production/_ext/1472/i2c.o
                0x9d037074                StartTransfer
                0x9d037144                TransmitOneByte
                0x9d037214                StopTransfer
                0x9d037284                mI2CGetByte

.rodata         0x9d03730c      0x290
 .rodata        0x9d03730c      0x290 build/default_-_avec_Bootloader/production/_ext/1472/SSLCert.o
                0x9d03730c                SSL_N
                0x9d03734c                SSL_D
                0x9d03738c                SSL_CERT
                0x9d037598                SSL_CERT_LEN

.text           0x9d03759c      0x4ec
 .text          0x9d03759c      0x288 build/default_-_avec_Bootloader/production/_ext/1295770447/Announce.o
                0x9d03759c                AnnounceIP
                0x9d037698                DiscoveryTask
 .text          0x9d037824      0x264 build/default_-_avec_Bootloader/production/_ext/1472/HTTP_Password.o
                0x9d037824                HTTPPostPassword
                0x9d037a64                HTTPPrint_pwd

.rodata         0x9d037a88      0x238
 .rodata        0x9d037a88      0x238 build/default_-_avec_Bootloader/production/_ext/1472/0_SparkBox.o
                0x9d037cb8                SerializedMACAddress

.text           0x9d037cc0      0x214
 .text          0x9d037cc0      0x214 build/default_-_avec_Bootloader/production/_ext/1295770447/Tick.o
                0x9d037d30                TickInit
                0x9d037d98                TickGet
                0x9d037db8                TickGetDiv256
                0x9d037df8                TickGetDiv64K
                0x9d037e38                TickConvertToMilliseconds
                0x9d037e64                _T1Interrupt

.rodata         0x9d037ed4      0x400
 .rodata        0x9d037ed4      0x20c build/default_-_avec_Bootloader/production/_ext/1472/Evse.o
 .rodata        0x9d0380e0      0x1f4 build/default_-_avec_Bootloader/production/_ext/1472/HTTP_cmd.o

.text           0x9d0382d4      0x1ec
 .text          0x9d0382d4      0x1ec build/default_-_avec_Bootloader/production/_ext/1295770447/IP.o
                0x9d0382d4                IPGetHeader
                0x9d0383d4                IPPutHeader
                0x9d0384b0                IPSetRxBuffer

.rodata         0x9d0384c0      0x1a0
 .rodata        0x9d0384c0      0x1a0 build/default_-_avec_Bootloader/production/_ext/1472/Eeprom_i2c.o

.text           0x9d038660      0x328
 .text          0x9d038660      0x1a0 c:/program files (x86)/microchip/xc32/v1.31/bin/../lib/gcc/pic32mx/4.5.2/../../../../pic32mx/lib/size\libpic32.a(strcpy.o)
                0x9d038660                strcpy
 .text          0x9d038800      0x188 build/default_-_avec_Bootloader/production/_ext/1472/log.o
                0x9d038800                Init_Log
                0x9d03883c                Ajout_Ligne_Log
                0x9d038940                Ajout_Ligne_Log_Long

.rodata         0x9d038988      0x170
 .rodata        0x9d038988      0x170 build/default_-_avec_Bootloader/production/_ext/1472/HTTP_Index.o

.text           0x9d038af8      0x414
 .text          0x9d038af8      0x168 c:/program files (x86)/microchip/xc32/v1.31/bin/../lib/gcc/pic32mx/4.5.2/../../../../pic32mx/lib/size\libpic32.a(memcpy.o)
                0x9d038af8                memcpy
 .text          0x9d038c60      0x168 c:/program files (x86)/microchip/xc32/v1.31/bin/../lib/gcc/pic32mx/4.5.2/../../../../pic32mx/lib/size\libpic32.a(strlen.o)
                0x9d038c60                strlen
 .text          0x9d038dc8      0x144 build/default_-_avec_Bootloader/production/_ext/1472/drv_spi.o
                0x9d038dc8                DRV_SPI_Initialize
                0x9d038e64                SPIPut
                0x9d038ea4                SPIGet
                0x9d038ec4                SPILock
                0x9d038ef4                SPIUnLock

.rodata         0x9d038f0c      0x140
 .rodata        0x9d038f0c      0x140 build/default_-_avec_Bootloader/production/_ext/1295770447/Hashes.o

.text.fputc     0x9d03904c      0x128
 .text.fputc    0x9d03904c      0x128 c:/program files (x86)/microchip/xc32/v1.31/bin/../lib/gcc/pic32mx/4.5.2/../../../../pic32mx/lib/size\libc.a(_fputc_simple.o)
                0x9d03904c                fputc

.text           0x9d039174      0x240
 .text          0x9d039174      0x120 build/default_-_avec_Bootloader/production/_ext/1295770447/Random.o
                0x9d039174                RandomAdd
                0x9d0391cc                RandomGet
                0x9d03922c                RandomInit
 .text          0x9d039294      0x120 c:/program files (x86)/microchip/xc32/v1.31/bin/../lib/gcc/pic32mx/4.5.2/../../../../pic32mx/lib/size\libpic32.a(strcmp.o)
                0x9d039294                strcmp

.text._flsbuf   0x9d0393b4      0x110
 .text._flsbuf  0x9d0393b4      0x110 c:/program files (x86)/microchip/xc32/v1.31/bin/../lib/gcc/pic32mx/4.5.2/../../../../pic32mx/lib/size\libc.a(_flsbuf_simple.o)
                0x9d0393b4                _flsbuf

.rodata         0x9d0394c4      0x104
 .rodata        0x9d0394c4      0x104 c:/program files (x86)/microchip/xc32/v1.31/bin/../lib/gcc/pic32mx/4.5.2/../../../../pic32mx/lib/size\libc.a(ctype.o)
                0x9d0394c4                _ctype

.text           0x9d0395c8       0xfc
 .text          0x9d0395c8       0xfc build/default_-_avec_Bootloader/production/_ext/1295770447/ARCFOUR.o
                0x9d0395c8                ARCFOURInitialize
                0x9d039640                ARCFOURCrypt

.rodata         0x9d0396c4      0x1e8
 .rodata        0x9d0396c4       0xf4 build/default_-_avec_Bootloader/production/_ext/1472/RTC.o
 .rodata        0x9d0397b8       0xf4 build/default_-_avec_Bootloader/production/_ext/1472/BD_sst.o
                0x9d03989c                SPI_Init_Data

.text           0x9d0398ac       0xf0
 .text          0x9d0398ac       0xf0 build/default_-_avec_Bootloader/production/_ext/1295770447/ICMP.o
                0x9d0398ac                ICMPProcess

.text.general_exception
                0x9d03999c       0xdc
 .text.general_exception
                0x9d03999c       0xdc c:/program files (x86)/microchip/xc32/v1.31/bin/../lib/gcc/pic32mx/4.5.2/../../../../pic32mx/lib/size\libpic32.a(general-exception.o)
                0x9d03999c                _general_exception_context

.text.mktime    0x9d039a78       0xd8
 .text.mktime   0x9d039a78       0xd8 c:/program files (x86)/microchip/xc32/v1.31/bin/../lib/gcc/pic32mx/4.5.2/../../../../pic32mx/lib/size\libc.a(mktime.o)
                0x9d039a78                mktime

.rodata         0x9d039b50       0xd0
 .rodata        0x9d039b50       0xd0 c:/program files (x86)/microchip/xc32/v1.31/bin/../lib/gcc/pic32mx/4.5.2/../../../../pic32mx/lib/size\libc.a(doprnt_cdnopsuxX.eo)

.text._mon_putc
                0x9d039c20       0xb4
 .text._mon_putc
                0x9d039c20       0xb4 c:/program files (x86)/microchip/xc32/v1.31/bin/../lib/gcc/pic32mx/4.5.2/../../../../pic32mx/lib/size\libpic32.a(_mon_putc.o)
                0x9d039c20                _mon_putc

.text           0x9d039cd4      0x148
 .text          0x9d039cd4       0xa8 c:/program files (x86)/microchip/xc32/v1.31/bin/../lib/gcc/pic32mx/4.5.2/../../../../pic32mx/lib/size\libpic32.a(memset.o)
                0x9d039cd4                memset
 .text          0x9d039d7c       0xa0 build/default_-_avec_Bootloader/production/_ext/1295770447/Delay.o
                0x9d039d7c                Delay10us
                0x9d039dbc                DelayMs

.rodata         0x9d039e1c      0x130
 .rodata        0x9d039e1c       0x98 build/default_-_avec_Bootloader/production/_ext/1472/HTTP_Donnees.o
 .rodata        0x9d039eb4       0x98 build/default_-_avec_Bootloader/production/_ext/1295770447/SMTP.o

.text           0x9d039f4c       0x98
 .text          0x9d039f4c       0x98 c:/program files (x86)/microchip/xc32/v1.31/bin/../lib/gcc/pic32mx/4.5.2/../../../../pic32mx/lib/size\libpic32.a(memcmp.o)
                0x9d039f4c                memcmp

.text.atol      0x9d039fe4       0x90
 .text.atol     0x9d039fe4       0x90 c:/program files (x86)/microchip/xc32/v1.31/bin/../lib/gcc/pic32mx/4.5.2/../../../../pic32mx/lib/size\libc.a(atol.o)
                0x9d039fe4                atol

.text.ymd_to_scalar
                0x9d03a074       0x90
 .text.ymd_to_scalar
                0x9d03a074       0x90 c:/program files (x86)/microchip/xc32/v1.31/bin/../lib/gcc/pic32mx/4.5.2/../../../../pic32mx/lib/size\libc.a(mktime.o)

.text.write     0x9d03a104       0x88
 .text.write    0x9d03a104       0x88 c:/program files (x86)/microchip/xc32/v1.31/bin/../lib/gcc/pic32mx/4.5.2/../../../../pic32mx/lib/size\libpic32.a(write.o)
                0x9d03a104                write

.text.atoi      0x9d03a18c       0x84
 .text.atoi     0x9d03a18c       0x84 c:/program files (x86)/microchip/xc32/v1.31/bin/../lib/gcc/pic32mx/4.5.2/../../../../pic32mx/lib/size\libc.a(atoi.o)
                0x9d03a18c                atoi

.rodata         0x9d03a210       0x78
 .rodata        0x9d03a210       0x78 build/default_-_avec_Bootloader/production/_ext/1472/HTTP_log.o

.text.SoftReset
                0x9d03a288       0x78
 .text.SoftReset
                0x9d03a288       0x78 c:/program files (x86)/microchip/xc32/v1.31/bin/../lib/gcc/pic32mx/4.5.2/../../../../pic32mx/lib/size\libmchp_peripheral_32MX695F512L.a(soft_reset_lib.o)
                0x9d03a288                SoftReset

.text.UARTEnable
                0x9d03a300       0x78
 .text.UARTEnable
                0x9d03a300       0x78 c:/program files (x86)/microchip/xc32/v1.31/bin/../lib/gcc/pic32mx/4.5.2/../../../../pic32mx/lib/size\libmchp_peripheral_32MX695F512L.a(uart_lib.o)
                0x9d03a300                UARTEnable

.text.strstr    0x9d03a378       0x78
 .text.strstr   0x9d03a378       0x78 c:/program files (x86)/microchip/xc32/v1.31/bin/../lib/gcc/pic32mx/4.5.2/../../../../pic32mx/lib/size\libc.a(strstr.o)
                0x9d03a378                strstr

.rodata         0x9d03a3f0       0x68
 .rodata        0x9d03a3f0       0x68 build/default_-_avec_Bootloader/production/_ext/1472/Mynetmemo.o

.text.ultoa     0x9d03a458       0x68
 .text.ultoa    0x9d03a458       0x68 c:/program files (x86)/microchip/xc32/v1.31/bin/../lib/gcc/pic32mx/4.5.2/../../../../pic32mx/lib/size\libc.a(ltoa.o)
                0x9d03a458                ultoa

.text._sprintf_cdnopsuxX
                0x9d03a4c0       0x64
 .text._sprintf_cdnopsuxX
                0x9d03a4c0       0x64 c:/program files (x86)/microchip/xc32/v1.31/bin/../lib/gcc/pic32mx/4.5.2/../../../../pic32mx/lib/size\libc.a(sprintf_cdnopsuxX.eo)
                0x9d03a4c0                _sprintf_cdnopsuxX

.rodata         0x9d03a524       0x5c
 .rodata        0x9d03a524       0x5c build/default_-_avec_Bootloader/production/_ext/1295770447/SSL.o

.text.UARTSetDataRate
                0x9d03a580       0x5c
 .text.UARTSetDataRate
                0x9d03a580       0x5c c:/program files (x86)/microchip/xc32/v1.31/bin/../lib/gcc/pic32mx/4.5.2/../../../../pic32mx/lib/size\libmchp_peripheral_32MX695F512L.a(uart_lib.o)
                0x9d03a580                UARTSetDataRate

.rodata         0x9d03a5dc       0xac
 .rodata        0x9d03a5dc       0x58 build/default_-_avec_Bootloader/production/_ext/1472/HTTP_Mynetmemo.o
 .rodata        0x9d03a634       0x54 build/default_-_avec_Bootloader/production/_ext/1472/HTTP_Reseau.o

.text.I2CBusIsIdle
                0x9d03a688       0x54
 .text.I2CBusIsIdle
                0x9d03a688       0x54 c:/program files (x86)/microchip/xc32/v1.31/bin/../lib/gcc/pic32mx/4.5.2/../../../../pic32mx/lib/size\libmchp_peripheral_32MX695F512L.a(I2CBusIsIdle.o)
                0x9d03a688                I2CBusIsIdle

.rodata         0x9d03a6dc       0x50
 .rodata        0x9d03a6dc       0x50 build/default_-_avec_Bootloader/production/_ext/1472/mcp7941.o

.text.sqrtf     0x9d03a72c       0x50
 .text.sqrtf    0x9d03a72c       0x50 c:/program files (x86)/microchip/xc32/v1.31/bin/../lib/gcc/pic32mx/4.5.2/../../../../pic32mx/lib/size\libm.a(w_sqrtf.o)
                0x9d03a72c                sqrtf

.text.strncpy   0x9d03a77c       0x50
 .text.strncpy  0x9d03a77c       0x50 c:/program files (x86)/microchip/xc32/v1.31/bin/../lib/gcc/pic32mx/4.5.2/../../../../pic32mx/lib/size\libc.a(strncpy.o)
                0x9d03a77c                strncpy

.text.main_entry
                0x9d03a7cc       0x4c
 .text.main_entry
                0x9d03a7cc       0x4c c:/program files (x86)/microchip/xc32/v1.31/bin/../lib/gcc/pic32mx/4.5.2/../../../../pic32mx/lib/./proc/32MX695F512L/crt0_mips32r2.o
                0x9d03a7f8                __crt0_exit

.text.INTEnable
                0x9d03a818       0x4c
 .text.INTEnable
                0x9d03a818       0x4c c:/program files (x86)/microchip/xc32/v1.31/bin/../lib/gcc/pic32mx/4.5.2/../../../../pic32mx/lib/size\libmchp_peripheral_32MX695F512L.a(int_tbl_lib.o)
                0x9d03a818                INTEnable

.text           0x9d03a864       0x4c
 .text          0x9d03a864       0x4c c:/program files (x86)/microchip/xc32/v1.31/bin/../lib/gcc/pic32mx/4.5.2/size\libgcc.a(floatunsisf.o)
                0x9d03a864                __floatunsisf

.text.I2CSetFrequency
                0x9d03a8b0       0x48
 .text.I2CSetFrequency
                0x9d03a8b0       0x48 c:/program files (x86)/microchip/xc32/v1.31/bin/../lib/gcc/pic32mx/4.5.2/../../../../pic32mx/lib/size\libmchp_peripheral_32MX695F512L.a(I2CSetFrequency.o)
                0x9d03a8b0                I2CSetFrequency

.text.I2CAcknowledgeByte
                0x9d03a8f8       0x44
 .text.I2CAcknowledgeByte
                0x9d03a8f8       0x44 c:/program files (x86)/microchip/xc32/v1.31/bin/../lib/gcc/pic32mx/4.5.2/../../../../pic32mx/lib/size\libmchp_peripheral_32MX695F512L.a(I2CAcknowledgeByte.o)
                0x9d03a8f8                I2CAcknowledgeByte

.text.I2CGetStatus
                0x9d03a93c       0x44
 .text.I2CGetStatus
                0x9d03a93c       0x44 c:/program files (x86)/microchip/xc32/v1.31/bin/../lib/gcc/pic32mx/4.5.2/../../../../pic32mx/lib/size\libmchp_peripheral_32MX695F512L.a(I2CGetStatus.o)
                0x9d03a93c                I2CGetStatus

.text           0x9d03a980       0x44
 .text          0x9d03a980       0x44 c:/program files (x86)/microchip/xc32/v1.31/bin/../lib/gcc/pic32mx/4.5.2/../../../../pic32mx/lib/size\libpic32.a(pic32_software_reset.o)
                0x9d03a980                __pic32_software_reset

.text.strncmp   0x9d03a9c4       0x44
 .text.strncmp  0x9d03a9c4       0x44 c:/program files (x86)/microchip/xc32/v1.31/bin/../lib/gcc/pic32mx/4.5.2/../../../../pic32mx/lib/size\libc.a(strncmp.o)
                0x9d03a9c4                strncmp

.text           0x9d03aa08       0x44
 .text          0x9d03aa08       0x44 c:/program files (x86)/microchip/xc32/v1.31/bin/../lib/gcc/pic32mx/4.5.2/size\libgcc.a(_lshrdi3.o)
                0x9d03aa08                __lshrdi3

.text.ltoa      0x9d03aa4c       0x40
 .text.ltoa     0x9d03aa4c       0x40 c:/program files (x86)/microchip/xc32/v1.31/bin/../lib/gcc/pic32mx/4.5.2/../../../../pic32mx/lib/size\libc.a(ltoa.o)
                0x9d03aa4c                ltoa

.text.UARTConfigure
                0x9d03aa8c       0x3c
 .text.UARTConfigure
                0x9d03aa8c       0x3c c:/program files (x86)/microchip/xc32/v1.31/bin/../lib/gcc/pic32mx/4.5.2/../../../../pic32mx/lib/size\libmchp_peripheral_32MX695F512L.a(uart_lib.o)
                0x9d03aa8c                UARTConfigure

.text.years_to_days
                0x9d03aac8       0x3c
 .text.years_to_days
                0x9d03aac8       0x3c c:/program files (x86)/microchip/xc32/v1.31/bin/../lib/gcc/pic32mx/4.5.2/../../../../pic32mx/lib/size\libc.a(mktime.o)

.rodata         0x9d03ab04       0x70
 .rodata        0x9d03ab04       0x38 build/default_-_avec_Bootloader/production/_ext/1472/HTTP_Teleinfo.o
 .rodata        0x9d03ab3c       0x38 build/default_-_avec_Bootloader/production/_ext/1472/HTTP_Password.o

.text.I2CReceiverEnable
                0x9d03ab74       0x38
 .text.I2CReceiverEnable
                0x9d03ab74       0x38 c:/program files (x86)/microchip/xc32/v1.31/bin/../lib/gcc/pic32mx/4.5.2/../../../../pic32mx/lib/size\libmchp_peripheral_32MX695F512L.a(I2CReceiverEnable.o)
                0x9d03ab74                I2CReceiverEnable

.text._bootstrap_exception_handler
                0x9d03abac       0x38
 .text._bootstrap_exception_handler
                0x9d03abac       0x38 c:/program files (x86)/microchip/xc32/v1.31/bin/../lib/gcc/pic32mx/4.5.2/../../../../pic32mx/lib/size\libpic32.a(default-bootstrap-exception-handler.o)
                0x9d03abac                _bootstrap_exception_handler

.text.INTEnableSystemMultiVectoredInt
                0x9d03abe4       0x34
 .text.INTEnableSystemMultiVectoredInt
                0x9d03abe4       0x34 c:/program files (x86)/microchip/xc32/v1.31/bin/../lib/gcc/pic32mx/4.5.2/../../../../pic32mx/lib/size\libmchp_peripheral_32MX695F512L.a(int_enable_mv_int_lib.o)
                0x9d03abe4                INTEnableSystemMultiVectoredInt

.text.I2CSendByte
                0x9d03ac18       0x34
 .text.I2CSendByte
                0x9d03ac18       0x34 c:/program files (x86)/microchip/xc32/v1.31/bin/../lib/gcc/pic32mx/4.5.2/../../../../pic32mx/lib/size\libmchp_peripheral_32MX695F512L.a(I2CSendByte.o)
                0x9d03ac18                I2CSendByte

.text.I2CStart  0x9d03ac4c       0x34
 .text.I2CStart
                0x9d03ac4c       0x34 c:/program files (x86)/microchip/xc32/v1.31/bin/../lib/gcc/pic32mx/4.5.2/../../../../pic32mx/lib/size\libmchp_peripheral_32MX695F512L.a(I2CStart.o)
                0x9d03ac4c                I2CStart

.text.I2CRepeatStart
                0x9d03ac80       0x30
 .text.I2CRepeatStart
                0x9d03ac80       0x30 c:/program files (x86)/microchip/xc32/v1.31/bin/../lib/gcc/pic32mx/4.5.2/../../../../pic32mx/lib/size\libmchp_peripheral_32MX695F512L.a(I2CRepeatStart.o)
                0x9d03ac80                I2CRepeatStart

.text.strcat    0x9d03acb0       0x30
 .text.strcat   0x9d03acb0       0x30 c:/program files (x86)/microchip/xc32/v1.31/bin/../lib/gcc/pic32mx/4.5.2/../../../../pic32mx/lib/size\libc.a(strcat.o)
                0x9d03acb0                strcat

.text.strchr    0x9d03ace0       0x2c
 .text.strchr   0x9d03ace0       0x2c c:/program files (x86)/microchip/xc32/v1.31/bin/../lib/gcc/pic32mx/4.5.2/../../../../pic32mx/lib/size\libc.a(strchr.o)
                0x9d03ace0                strchr

.rodata         0x9d03ad0c       0x28
 .rodata        0x9d03ad0c       0x28 build/default_-_avec_Bootloader/production/_ext/1472/Temperature.o

.text.INTClearFlag
                0x9d03ad34       0x28
 .text.INTClearFlag
                0x9d03ad34       0x28 c:/program files (x86)/microchip/xc32/v1.31/bin/../lib/gcc/pic32mx/4.5.2/../../../../pic32mx/lib/size\libmchp_peripheral_32MX695F512L.a(int_tbl_lib.o)
                0x9d03ad34                INTClearFlag

.text.UARTSetFifoMode
                0x9d03ad5c       0x28
 .text.UARTSetFifoMode
                0x9d03ad5c       0x28 c:/program files (x86)/microchip/xc32/v1.31/bin/../lib/gcc/pic32mx/4.5.2/../../../../pic32mx/lib/size\libmchp_peripheral_32MX695F512L.a(uart_lib.o)
                0x9d03ad5c                UARTSetFifoMode

.text.UARTSetLineControl
                0x9d03ad84       0x28
 .text.UARTSetLineControl
                0x9d03ad84       0x28 c:/program files (x86)/microchip/xc32/v1.31/bin/../lib/gcc/pic32mx/4.5.2/../../../../pic32mx/lib/size\libmchp_peripheral_32MX695F512L.a(uart_lib.o)
                0x9d03ad84                UARTSetLineControl

.text.I2CEnable
                0x9d03adac       0x28
 .text.I2CEnable
                0x9d03adac       0x28 c:/program files (x86)/microchip/xc32/v1.31/bin/../lib/gcc/pic32mx/4.5.2/../../../../pic32mx/lib/size\libmchp_peripheral_32MX695F512L.a(I2CEnable.o)
                0x9d03adac                I2CEnable

.text.I2CByteWasAcknowledged
                0x9d03add4       0x24
 .text.I2CByteWasAcknowledged
                0x9d03add4       0x24 c:/program files (x86)/microchip/xc32/v1.31/bin/../lib/gcc/pic32mx/4.5.2/../../../../pic32mx/lib/size\libmchp_peripheral_32MX695F512L.a(I2CByteWasAcknowledged.o)
                0x9d03add4                I2CByteWasAcknowledged

.text.I2CStop   0x9d03adf8       0x24
 .text.I2CStop  0x9d03adf8       0x24 c:/program files (x86)/microchip/xc32/v1.31/bin/../lib/gcc/pic32mx/4.5.2/../../../../pic32mx/lib/size\libmchp_peripheral_32MX695F512L.a(I2CStop.o)
                0x9d03adf8                I2CStop

.text.I2CTransmissionHasCompleted
                0x9d03ae1c       0x24
 .text.I2CTransmissionHasCompleted
                0x9d03ae1c       0x24 c:/program files (x86)/microchip/xc32/v1.31/bin/../lib/gcc/pic32mx/4.5.2/../../../../pic32mx/lib/size\libmchp_peripheral_32MX695F512L.a(I2CTransmissionHasCompleted.o)
                0x9d03ae1c                I2CTransmissionHasCompleted

.text.I2CTransmitterIsReady
                0x9d03ae40       0x24
 .text.I2CTransmitterIsReady
                0x9d03ae40       0x24 c:/program files (x86)/microchip/xc32/v1.31/bin/../lib/gcc/pic32mx/4.5.2/../../../../pic32mx/lib/size\libmchp_peripheral_32MX695F512L.a(I2CTransmitterIsReady.o)
                0x9d03ae40                I2CTransmitterIsReady

.text.toupper   0x9d03ae64       0x24
 .text.toupper  0x9d03ae64       0x24 c:/program files (x86)/microchip/xc32/v1.31/bin/../lib/gcc/pic32mx/4.5.2/../../../../pic32mx/lib/size\libc.a(ctypef.o)
                0x9d03ae64                toupper

.rodata         0x9d03ae88       0x20
 .rodata        0x9d03ae88       0x20 build/default_-_avec_Bootloader/production/_ext/1295770447/TCP.o
                0x9d03ae88                TCPSocketInitializer

.text.I2CGetByte
                0x9d03aea8       0x20
 .text.I2CGetByte
                0x9d03aea8       0x20 c:/program files (x86)/microchip/xc32/v1.31/bin/../lib/gcc/pic32mx/4.5.2/../../../../pic32mx/lib/size\libmchp_peripheral_32MX695F512L.a(I2CGetByte.o)
                0x9d03aea8                I2CGetByte

.text.I2CReceivedDataIsAvailable
                0x9d03aec8       0x20
 .text.I2CReceivedDataIsAvailable
                0x9d03aec8       0x20 c:/program files (x86)/microchip/xc32/v1.31/bin/../lib/gcc/pic32mx/4.5.2/../../../../pic32mx/lib/size\libmchp_peripheral_32MX695F512L.a(I2CReceivedDataIsAvailable.o)
                0x9d03aec8                I2CReceivedDataIsAvailable

.rodata         0x9d03aee8       0x1c
 .rodata        0x9d03aee8       0x1c build/default_-_avec_Bootloader/production/_ext/1295770447/Announce.o

.text.INTRestoreInterrupts
                0x9d03af04       0x1c
 .text.INTRestoreInterrupts
                0x9d03af04       0x1c c:/program files (x86)/microchip/xc32/v1.31/bin/../lib/gcc/pic32mx/4.5.2/../../../../pic32mx/lib/size\libmchp_peripheral_32MX695F512L.a(int_restore_interrupts_lib.o)
                0x9d03af04                INTRestoreInterrupts

.text.CheKseg0CacheOn
                0x9d03af20       0x18
 .text.CheKseg0CacheOn
                0x9d03af20       0x18 c:/program files (x86)/microchip/xc32/v1.31/bin/../lib/gcc/pic32mx/4.5.2/../../../../pic32mx/lib/size\libmchp_peripheral_32MX695F512L.a(pcache.o)
                0x9d03af20                CheKseg0CacheOn

.rodata         0x9d03af38       0x18
 .rodata        0x9d03af38       0x18 c:/program files (x86)/microchip/xc32/v1.31/bin/../lib/gcc/pic32mx/4.5.2/../../../../pic32mx/lib/size\libmchp_peripheral_32MX695F512L.a(uart_lib.o)
                0x9d03af38                uartReg

.text           0x9d03af50       0x18
 .text          0x9d03af50       0x18 c:/program files (x86)/microchip/xc32/v1.31/bin/../lib/gcc/pic32mx/4.5.2/../../../../pic32mx/lib/size\libpic32.a(default-nmi-handler.o)
                0x9d03af50                _nmi_handler

.rodata         0x9d03af68       0x30
 .rodata        0x9d03af68       0x14 c:/program files (x86)/microchip/xc32/v1.31/bin/../lib/gcc/pic32mx/4.5.2/../../../../pic32mx/lib/size\libmchp_peripheral_32MX695F512L.a(I2CPrivate.o)
                0x9d03af68                i2cBase
 .rodata        0x9d03af7c        0xc build/default_-_avec_Bootloader/production/_ext/1472/Analogique.o
 .rodata        0x9d03af88        0x8 build/default_-_avec_Bootloader/production/_ext/1295770447/MPFS2.o
 .rodata        0x9d03af90        0x8 build/default_-_avec_Bootloader/production/_ext/1472/log.o

.text.INTDisableInterrupts
                0x9d03af98        0x8
 .text.INTDisableInterrupts
                0x9d03af98        0x8 c:/program files (x86)/microchip/xc32/v1.31/bin/../lib/gcc/pic32mx/4.5.2/../../../../pic32mx/lib/size\libmchp_peripheral_32MX695F512L.a(int_disable_interrupts_lib.o)
                0x9d03af98                INTDisableInterrupts

.text.INTEnableInterrupts
                0x9d03afa0        0x8
 .text.INTEnableInterrupts
                0x9d03afa0        0x8 c:/program files (x86)/microchip/xc32/v1.31/bin/../lib/gcc/pic32mx/4.5.2/../../../../pic32mx/lib/size\libmchp_peripheral_32MX695F512L.a(int_enable_interrupts_lib.o)
                0x9d03afa0                INTEnableInterrupts

.text._on_reset
                0x9d03afa8        0x8
 .text._on_reset
                0x9d03afa8        0x8 c:/program files (x86)/microchip/xc32/v1.31/bin/../lib/gcc/pic32mx/4.5.2/../../../../pic32mx/lib/size\libpic32.a(default-on-reset.o)
                0x9d03afa8                _on_reset

.text._on_bootstrap
                0x9d03afb0        0x8
 .text._on_bootstrap
                0x9d03afb0        0x8 c:/program files (x86)/microchip/xc32/v1.31/bin/../lib/gcc/pic32mx/4.5.2/../../../../pic32mx/lib/size\libpic32.a(default-on-bootstrap.o)
                0x9d03afb0                _on_bootstrap

.rodata         0x9d03afb8        0x4
 .rodata        0x9d03afb8        0x4 build/default_-_avec_Bootloader/production/_ext/1472/Lcd.o
